
STM32F401.elf:     file format elf32-littlearm

Sections:
Idx Name          Size      VMA       LMA       File off  Algn
  0 .isr_vector   00000194  08000000  08000000  00010000  2**0
                  CONTENTS, ALLOC, LOAD, READONLY, DATA
  1 .text         000035b0  080001a0  080001a0  000101a0  2**4
                  CONTENTS, ALLOC, LOAD, READONLY, CODE
  2 .rodata       00000298  08003750  08003750  00013750  2**3
                  CONTENTS, ALLOC, LOAD, READONLY, DATA
  3 .ARM.extab    00000000  080039e8  080039e8  000201d4  2**0
                  CONTENTS
  4 .ARM          00000000  080039e8  080039e8  000201d4  2**0
                  CONTENTS
  5 .preinit_array 00000000  080039e8  080039e8  000201d4  2**0
                  CONTENTS, ALLOC, LOAD, DATA
  6 .init_array   00000004  080039e8  080039e8  000139e8  2**2
                  CONTENTS, ALLOC, LOAD, DATA
  7 .fini_array   00000004  080039ec  080039ec  000139ec  2**2
                  CONTENTS, ALLOC, LOAD, DATA
  8 .data         000001d4  20000000  080039f0  00020000  2**2
                  CONTENTS, ALLOC, LOAD, DATA
  9 .bss          0000014c  200001d4  08003bc4  000201d4  2**2
                  ALLOC
 10 ._user_heap_stack 00000600  20000320  08003bc4  00020320  2**0
                  ALLOC
 11 .ARM.attributes 00000030  00000000  00000000  000201d4  2**0
                  CONTENTS, READONLY
 12 .debug_info   00003779  00000000  00000000  00020204  2**0
                  CONTENTS, READONLY, DEBUGGING
 13 .debug_abbrev 00000ab2  00000000  00000000  0002397d  2**0
                  CONTENTS, READONLY, DEBUGGING
 14 .debug_aranges 000001e8  00000000  00000000  00024430  2**3
                  CONTENTS, READONLY, DEBUGGING
 15 .debug_ranges 00000170  00000000  00000000  00024618  2**3
                  CONTENTS, READONLY, DEBUGGING
 16 .debug_macro  0000e6bc  00000000  00000000  00024788  2**0
                  CONTENTS, READONLY, DEBUGGING
 17 .debug_line   00002377  00000000  00000000  00032e44  2**0
                  CONTENTS, READONLY, DEBUGGING
 18 .debug_str    00053302  00000000  00000000  000351bb  2**0
                  CONTENTS, READONLY, DEBUGGING
 19 .comment      0000007b  00000000  00000000  000884bd  2**0
                  CONTENTS, READONLY
 20 .debug_frame  00000fa4  00000000  00000000  00088538  2**2
                  CONTENTS, READONLY, DEBUGGING

Disassembly of section .text:

080001a0 <__do_global_dtors_aux>:
 80001a0:	b510      	push	{r4, lr}
 80001a2:	4c05      	ldr	r4, [pc, #20]	; (80001b8 <__do_global_dtors_aux+0x18>)
 80001a4:	7823      	ldrb	r3, [r4, #0]
 80001a6:	b933      	cbnz	r3, 80001b6 <__do_global_dtors_aux+0x16>
 80001a8:	4b04      	ldr	r3, [pc, #16]	; (80001bc <__do_global_dtors_aux+0x1c>)
 80001aa:	b113      	cbz	r3, 80001b2 <__do_global_dtors_aux+0x12>
 80001ac:	4804      	ldr	r0, [pc, #16]	; (80001c0 <__do_global_dtors_aux+0x20>)
 80001ae:	f3af 8000 	nop.w
 80001b2:	2301      	movs	r3, #1
 80001b4:	7023      	strb	r3, [r4, #0]
 80001b6:	bd10      	pop	{r4, pc}
 80001b8:	200001d4 	.word	0x200001d4
 80001bc:	00000000 	.word	0x00000000
 80001c0:	08003738 	.word	0x08003738

080001c4 <frame_dummy>:
 80001c4:	b508      	push	{r3, lr}
 80001c6:	4b03      	ldr	r3, [pc, #12]	; (80001d4 <frame_dummy+0x10>)
 80001c8:	b11b      	cbz	r3, 80001d2 <frame_dummy+0xe>
 80001ca:	4903      	ldr	r1, [pc, #12]	; (80001d8 <frame_dummy+0x14>)
 80001cc:	4803      	ldr	r0, [pc, #12]	; (80001dc <frame_dummy+0x18>)
 80001ce:	f3af 8000 	nop.w
 80001d2:	bd08      	pop	{r3, pc}
 80001d4:	00000000 	.word	0x00000000
 80001d8:	200001d8 	.word	0x200001d8
 80001dc:	08003738 	.word	0x08003738

080001e0 <strlen>:
 80001e0:	4603      	mov	r3, r0
 80001e2:	f813 2b01 	ldrb.w	r2, [r3], #1
 80001e6:	2a00      	cmp	r2, #0
 80001e8:	d1fb      	bne.n	80001e2 <strlen+0x2>
 80001ea:	1a18      	subs	r0, r3, r0
 80001ec:	3801      	subs	r0, #1
 80001ee:	4770      	bx	lr

080001f0 <memchr>:
 80001f0:	f001 01ff 	and.w	r1, r1, #255	; 0xff
 80001f4:	2a10      	cmp	r2, #16
 80001f6:	db2b      	blt.n	8000250 <memchr+0x60>
 80001f8:	f010 0f07 	tst.w	r0, #7
 80001fc:	d008      	beq.n	8000210 <memchr+0x20>
 80001fe:	f810 3b01 	ldrb.w	r3, [r0], #1
 8000202:	3a01      	subs	r2, #1
 8000204:	428b      	cmp	r3, r1
 8000206:	d02d      	beq.n	8000264 <memchr+0x74>
 8000208:	f010 0f07 	tst.w	r0, #7
 800020c:	b342      	cbz	r2, 8000260 <memchr+0x70>
 800020e:	d1f6      	bne.n	80001fe <memchr+0xe>
 8000210:	b4f0      	push	{r4, r5, r6, r7}
 8000212:	ea41 2101 	orr.w	r1, r1, r1, lsl #8
 8000216:	ea41 4101 	orr.w	r1, r1, r1, lsl #16
 800021a:	f022 0407 	bic.w	r4, r2, #7
 800021e:	f07f 0700 	mvns.w	r7, #0
 8000222:	2300      	movs	r3, #0
 8000224:	e8f0 5602 	ldrd	r5, r6, [r0], #8
 8000228:	3c08      	subs	r4, #8
 800022a:	ea85 0501 	eor.w	r5, r5, r1
 800022e:	ea86 0601 	eor.w	r6, r6, r1
 8000232:	fa85 f547 	uadd8	r5, r5, r7
 8000236:	faa3 f587 	sel	r5, r3, r7
 800023a:	fa86 f647 	uadd8	r6, r6, r7
 800023e:	faa5 f687 	sel	r6, r5, r7
 8000242:	b98e      	cbnz	r6, 8000268 <memchr+0x78>
 8000244:	d1ee      	bne.n	8000224 <memchr+0x34>
 8000246:	bcf0      	pop	{r4, r5, r6, r7}
 8000248:	f001 01ff 	and.w	r1, r1, #255	; 0xff
 800024c:	f002 0207 	and.w	r2, r2, #7
 8000250:	b132      	cbz	r2, 8000260 <memchr+0x70>
 8000252:	f810 3b01 	ldrb.w	r3, [r0], #1
 8000256:	3a01      	subs	r2, #1
 8000258:	ea83 0301 	eor.w	r3, r3, r1
 800025c:	b113      	cbz	r3, 8000264 <memchr+0x74>
 800025e:	d1f8      	bne.n	8000252 <memchr+0x62>
 8000260:	2000      	movs	r0, #0
 8000262:	4770      	bx	lr
 8000264:	3801      	subs	r0, #1
 8000266:	4770      	bx	lr
 8000268:	2d00      	cmp	r5, #0
 800026a:	bf06      	itte	eq
 800026c:	4635      	moveq	r5, r6
 800026e:	3803      	subeq	r0, #3
 8000270:	3807      	subne	r0, #7
 8000272:	f015 0f01 	tst.w	r5, #1
 8000276:	d107      	bne.n	8000288 <memchr+0x98>
 8000278:	3001      	adds	r0, #1
 800027a:	f415 7f80 	tst.w	r5, #256	; 0x100
 800027e:	bf02      	ittt	eq
 8000280:	3001      	addeq	r0, #1
 8000282:	f415 3fc0 	tsteq.w	r5, #98304	; 0x18000
 8000286:	3001      	addeq	r0, #1
 8000288:	bcf0      	pop	{r4, r5, r6, r7}
 800028a:	3801      	subs	r0, #1
 800028c:	4770      	bx	lr
 800028e:	bf00      	nop

08000290 <__aeabi_drsub>:
 8000290:	f081 4100 	eor.w	r1, r1, #2147483648	; 0x80000000
 8000294:	e002      	b.n	800029c <__adddf3>
 8000296:	bf00      	nop

08000298 <__aeabi_dsub>:
 8000298:	f083 4300 	eor.w	r3, r3, #2147483648	; 0x80000000

0800029c <__adddf3>:
 800029c:	b530      	push	{r4, r5, lr}
 800029e:	ea4f 0441 	mov.w	r4, r1, lsl #1
 80002a2:	ea4f 0543 	mov.w	r5, r3, lsl #1
 80002a6:	ea94 0f05 	teq	r4, r5
 80002aa:	bf08      	it	eq
 80002ac:	ea90 0f02 	teqeq	r0, r2
 80002b0:	bf1f      	itttt	ne
 80002b2:	ea54 0c00 	orrsne.w	ip, r4, r0
 80002b6:	ea55 0c02 	orrsne.w	ip, r5, r2
 80002ba:	ea7f 5c64 	mvnsne.w	ip, r4, asr #21
 80002be:	ea7f 5c65 	mvnsne.w	ip, r5, asr #21
 80002c2:	f000 80e2 	beq.w	800048a <__adddf3+0x1ee>
 80002c6:	ea4f 5454 	mov.w	r4, r4, lsr #21
 80002ca:	ebd4 5555 	rsbs	r5, r4, r5, lsr #21
 80002ce:	bfb8      	it	lt
 80002d0:	426d      	neglt	r5, r5
 80002d2:	dd0c      	ble.n	80002ee <__adddf3+0x52>
 80002d4:	442c      	add	r4, r5
 80002d6:	ea80 0202 	eor.w	r2, r0, r2
 80002da:	ea81 0303 	eor.w	r3, r1, r3
 80002de:	ea82 0000 	eor.w	r0, r2, r0
 80002e2:	ea83 0101 	eor.w	r1, r3, r1
 80002e6:	ea80 0202 	eor.w	r2, r0, r2
 80002ea:	ea81 0303 	eor.w	r3, r1, r3
 80002ee:	2d36      	cmp	r5, #54	; 0x36
 80002f0:	bf88      	it	hi
 80002f2:	bd30      	pophi	{r4, r5, pc}
 80002f4:	f011 4f00 	tst.w	r1, #2147483648	; 0x80000000
 80002f8:	ea4f 3101 	mov.w	r1, r1, lsl #12
 80002fc:	f44f 1c80 	mov.w	ip, #1048576	; 0x100000
 8000300:	ea4c 3111 	orr.w	r1, ip, r1, lsr #12
 8000304:	d002      	beq.n	800030c <__adddf3+0x70>
 8000306:	4240      	negs	r0, r0
 8000308:	eb61 0141 	sbc.w	r1, r1, r1, lsl #1
 800030c:	f013 4f00 	tst.w	r3, #2147483648	; 0x80000000
 8000310:	ea4f 3303 	mov.w	r3, r3, lsl #12
 8000314:	ea4c 3313 	orr.w	r3, ip, r3, lsr #12
 8000318:	d002      	beq.n	8000320 <__adddf3+0x84>
 800031a:	4252      	negs	r2, r2
 800031c:	eb63 0343 	sbc.w	r3, r3, r3, lsl #1
 8000320:	ea94 0f05 	teq	r4, r5
 8000324:	f000 80a7 	beq.w	8000476 <__adddf3+0x1da>
 8000328:	f1a4 0401 	sub.w	r4, r4, #1
 800032c:	f1d5 0e20 	rsbs	lr, r5, #32
 8000330:	db0d      	blt.n	800034e <__adddf3+0xb2>
 8000332:	fa02 fc0e 	lsl.w	ip, r2, lr
 8000336:	fa22 f205 	lsr.w	r2, r2, r5
 800033a:	1880      	adds	r0, r0, r2
 800033c:	f141 0100 	adc.w	r1, r1, #0
 8000340:	fa03 f20e 	lsl.w	r2, r3, lr
 8000344:	1880      	adds	r0, r0, r2
 8000346:	fa43 f305 	asr.w	r3, r3, r5
 800034a:	4159      	adcs	r1, r3
 800034c:	e00e      	b.n	800036c <__adddf3+0xd0>
 800034e:	f1a5 0520 	sub.w	r5, r5, #32
 8000352:	f10e 0e20 	add.w	lr, lr, #32
 8000356:	2a01      	cmp	r2, #1
 8000358:	fa03 fc0e 	lsl.w	ip, r3, lr
 800035c:	bf28      	it	cs
 800035e:	f04c 0c02 	orrcs.w	ip, ip, #2
 8000362:	fa43 f305 	asr.w	r3, r3, r5
 8000366:	18c0      	adds	r0, r0, r3
 8000368:	eb51 71e3 	adcs.w	r1, r1, r3, asr #31
 800036c:	f001 4500 	and.w	r5, r1, #2147483648	; 0x80000000
 8000370:	d507      	bpl.n	8000382 <__adddf3+0xe6>
 8000372:	f04f 0e00 	mov.w	lr, #0
 8000376:	f1dc 0c00 	rsbs	ip, ip, #0
 800037a:	eb7e 0000 	sbcs.w	r0, lr, r0
 800037e:	eb6e 0101 	sbc.w	r1, lr, r1
 8000382:	f5b1 1f80 	cmp.w	r1, #1048576	; 0x100000
 8000386:	d31b      	bcc.n	80003c0 <__adddf3+0x124>
 8000388:	f5b1 1f00 	cmp.w	r1, #2097152	; 0x200000
 800038c:	d30c      	bcc.n	80003a8 <__adddf3+0x10c>
 800038e:	0849      	lsrs	r1, r1, #1
 8000390:	ea5f 0030 	movs.w	r0, r0, rrx
 8000394:	ea4f 0c3c 	mov.w	ip, ip, rrx
 8000398:	f104 0401 	add.w	r4, r4, #1
 800039c:	ea4f 5244 	mov.w	r2, r4, lsl #21
 80003a0:	f512 0f80 	cmn.w	r2, #4194304	; 0x400000
 80003a4:	f080 809a 	bcs.w	80004dc <__adddf3+0x240>
 80003a8:	f1bc 4f00 	cmp.w	ip, #2147483648	; 0x80000000
 80003ac:	bf08      	it	eq
 80003ae:	ea5f 0c50 	movseq.w	ip, r0, lsr #1
 80003b2:	f150 0000 	adcs.w	r0, r0, #0
 80003b6:	eb41 5104 	adc.w	r1, r1, r4, lsl #20
 80003ba:	ea41 0105 	orr.w	r1, r1, r5
 80003be:	bd30      	pop	{r4, r5, pc}
 80003c0:	ea5f 0c4c 	movs.w	ip, ip, lsl #1
 80003c4:	4140      	adcs	r0, r0
 80003c6:	eb41 0101 	adc.w	r1, r1, r1
 80003ca:	f411 1f80 	tst.w	r1, #1048576	; 0x100000
 80003ce:	f1a4 0401 	sub.w	r4, r4, #1
 80003d2:	d1e9      	bne.n	80003a8 <__adddf3+0x10c>
 80003d4:	f091 0f00 	teq	r1, #0
 80003d8:	bf04      	itt	eq
 80003da:	4601      	moveq	r1, r0
 80003dc:	2000      	moveq	r0, #0
 80003de:	fab1 f381 	clz	r3, r1
 80003e2:	bf08      	it	eq
 80003e4:	3320      	addeq	r3, #32
 80003e6:	f1a3 030b 	sub.w	r3, r3, #11
 80003ea:	f1b3 0220 	subs.w	r2, r3, #32
 80003ee:	da0c      	bge.n	800040a <__adddf3+0x16e>
 80003f0:	320c      	adds	r2, #12
 80003f2:	dd08      	ble.n	8000406 <__adddf3+0x16a>
 80003f4:	f102 0c14 	add.w	ip, r2, #20
 80003f8:	f1c2 020c 	rsb	r2, r2, #12
 80003fc:	fa01 f00c 	lsl.w	r0, r1, ip
 8000400:	fa21 f102 	lsr.w	r1, r1, r2
 8000404:	e00c      	b.n	8000420 <__adddf3+0x184>
 8000406:	f102 0214 	add.w	r2, r2, #20
 800040a:	bfd8      	it	le
 800040c:	f1c2 0c20 	rsble	ip, r2, #32
 8000410:	fa01 f102 	lsl.w	r1, r1, r2
 8000414:	fa20 fc0c 	lsr.w	ip, r0, ip
 8000418:	bfdc      	itt	le
 800041a:	ea41 010c 	orrle.w	r1, r1, ip
 800041e:	4090      	lslle	r0, r2
 8000420:	1ae4      	subs	r4, r4, r3
 8000422:	bfa2      	ittt	ge
 8000424:	eb01 5104 	addge.w	r1, r1, r4, lsl #20
 8000428:	4329      	orrge	r1, r5
 800042a:	bd30      	popge	{r4, r5, pc}
 800042c:	ea6f 0404 	mvn.w	r4, r4
 8000430:	3c1f      	subs	r4, #31
 8000432:	da1c      	bge.n	800046e <__adddf3+0x1d2>
 8000434:	340c      	adds	r4, #12
 8000436:	dc0e      	bgt.n	8000456 <__adddf3+0x1ba>
 8000438:	f104 0414 	add.w	r4, r4, #20
 800043c:	f1c4 0220 	rsb	r2, r4, #32
 8000440:	fa20 f004 	lsr.w	r0, r0, r4
 8000444:	fa01 f302 	lsl.w	r3, r1, r2
 8000448:	ea40 0003 	orr.w	r0, r0, r3
 800044c:	fa21 f304 	lsr.w	r3, r1, r4
 8000450:	ea45 0103 	orr.w	r1, r5, r3
 8000454:	bd30      	pop	{r4, r5, pc}
 8000456:	f1c4 040c 	rsb	r4, r4, #12
 800045a:	f1c4 0220 	rsb	r2, r4, #32
 800045e:	fa20 f002 	lsr.w	r0, r0, r2
 8000462:	fa01 f304 	lsl.w	r3, r1, r4
 8000466:	ea40 0003 	orr.w	r0, r0, r3
 800046a:	4629      	mov	r1, r5
 800046c:	bd30      	pop	{r4, r5, pc}
 800046e:	fa21 f004 	lsr.w	r0, r1, r4
 8000472:	4629      	mov	r1, r5
 8000474:	bd30      	pop	{r4, r5, pc}
 8000476:	f094 0f00 	teq	r4, #0
 800047a:	f483 1380 	eor.w	r3, r3, #1048576	; 0x100000
 800047e:	bf06      	itte	eq
 8000480:	f481 1180 	eoreq.w	r1, r1, #1048576	; 0x100000
 8000484:	3401      	addeq	r4, #1
 8000486:	3d01      	subne	r5, #1
 8000488:	e74e      	b.n	8000328 <__adddf3+0x8c>
 800048a:	ea7f 5c64 	mvns.w	ip, r4, asr #21
 800048e:	bf18      	it	ne
 8000490:	ea7f 5c65 	mvnsne.w	ip, r5, asr #21
 8000494:	d029      	beq.n	80004ea <__adddf3+0x24e>
 8000496:	ea94 0f05 	teq	r4, r5
 800049a:	bf08      	it	eq
 800049c:	ea90 0f02 	teqeq	r0, r2
 80004a0:	d005      	beq.n	80004ae <__adddf3+0x212>
 80004a2:	ea54 0c00 	orrs.w	ip, r4, r0
 80004a6:	bf04      	itt	eq
 80004a8:	4619      	moveq	r1, r3
 80004aa:	4610      	moveq	r0, r2
 80004ac:	bd30      	pop	{r4, r5, pc}
 80004ae:	ea91 0f03 	teq	r1, r3
 80004b2:	bf1e      	ittt	ne
 80004b4:	2100      	movne	r1, #0
 80004b6:	2000      	movne	r0, #0
 80004b8:	bd30      	popne	{r4, r5, pc}
 80004ba:	ea5f 5c54 	movs.w	ip, r4, lsr #21
 80004be:	d105      	bne.n	80004cc <__adddf3+0x230>
 80004c0:	0040      	lsls	r0, r0, #1
 80004c2:	4149      	adcs	r1, r1
 80004c4:	bf28      	it	cs
 80004c6:	f041 4100 	orrcs.w	r1, r1, #2147483648	; 0x80000000
 80004ca:	bd30      	pop	{r4, r5, pc}
 80004cc:	f514 0480 	adds.w	r4, r4, #4194304	; 0x400000
 80004d0:	bf3c      	itt	cc
 80004d2:	f501 1180 	addcc.w	r1, r1, #1048576	; 0x100000
 80004d6:	bd30      	popcc	{r4, r5, pc}
 80004d8:	f001 4500 	and.w	r5, r1, #2147483648	; 0x80000000
 80004dc:	f045 41fe 	orr.w	r1, r5, #2130706432	; 0x7f000000
 80004e0:	f441 0170 	orr.w	r1, r1, #15728640	; 0xf00000
 80004e4:	f04f 0000 	mov.w	r0, #0
 80004e8:	bd30      	pop	{r4, r5, pc}
 80004ea:	ea7f 5c64 	mvns.w	ip, r4, asr #21
 80004ee:	bf1a      	itte	ne
 80004f0:	4619      	movne	r1, r3
 80004f2:	4610      	movne	r0, r2
 80004f4:	ea7f 5c65 	mvnseq.w	ip, r5, asr #21
 80004f8:	bf1c      	itt	ne
 80004fa:	460b      	movne	r3, r1
 80004fc:	4602      	movne	r2, r0
 80004fe:	ea50 3401 	orrs.w	r4, r0, r1, lsl #12
 8000502:	bf06      	itte	eq
 8000504:	ea52 3503 	orrseq.w	r5, r2, r3, lsl #12
 8000508:	ea91 0f03 	teqeq	r1, r3
 800050c:	f441 2100 	orrne.w	r1, r1, #524288	; 0x80000
 8000510:	bd30      	pop	{r4, r5, pc}
 8000512:	bf00      	nop

08000514 <__aeabi_ui2d>:
 8000514:	f090 0f00 	teq	r0, #0
 8000518:	bf04      	itt	eq
 800051a:	2100      	moveq	r1, #0
 800051c:	4770      	bxeq	lr
 800051e:	b530      	push	{r4, r5, lr}
 8000520:	f44f 6480 	mov.w	r4, #1024	; 0x400
 8000524:	f104 0432 	add.w	r4, r4, #50	; 0x32
 8000528:	f04f 0500 	mov.w	r5, #0
 800052c:	f04f 0100 	mov.w	r1, #0
 8000530:	e750      	b.n	80003d4 <__adddf3+0x138>
 8000532:	bf00      	nop

08000534 <__aeabi_i2d>:
 8000534:	f090 0f00 	teq	r0, #0
 8000538:	bf04      	itt	eq
 800053a:	2100      	moveq	r1, #0
 800053c:	4770      	bxeq	lr
 800053e:	b530      	push	{r4, r5, lr}
 8000540:	f44f 6480 	mov.w	r4, #1024	; 0x400
 8000544:	f104 0432 	add.w	r4, r4, #50	; 0x32
 8000548:	f010 4500 	ands.w	r5, r0, #2147483648	; 0x80000000
 800054c:	bf48      	it	mi
 800054e:	4240      	negmi	r0, r0
 8000550:	f04f 0100 	mov.w	r1, #0
 8000554:	e73e      	b.n	80003d4 <__adddf3+0x138>
 8000556:	bf00      	nop

08000558 <__aeabi_f2d>:
 8000558:	0042      	lsls	r2, r0, #1
 800055a:	ea4f 01e2 	mov.w	r1, r2, asr #3
 800055e:	ea4f 0131 	mov.w	r1, r1, rrx
 8000562:	ea4f 7002 	mov.w	r0, r2, lsl #28
 8000566:	bf1f      	itttt	ne
 8000568:	f012 437f 	andsne.w	r3, r2, #4278190080	; 0xff000000
 800056c:	f093 4f7f 	teqne	r3, #4278190080	; 0xff000000
 8000570:	f081 5160 	eorne.w	r1, r1, #939524096	; 0x38000000
 8000574:	4770      	bxne	lr
 8000576:	f032 427f 	bics.w	r2, r2, #4278190080	; 0xff000000
 800057a:	bf08      	it	eq
 800057c:	4770      	bxeq	lr
 800057e:	f093 4f7f 	teq	r3, #4278190080	; 0xff000000
 8000582:	bf04      	itt	eq
 8000584:	f441 2100 	orreq.w	r1, r1, #524288	; 0x80000
 8000588:	4770      	bxeq	lr
 800058a:	b530      	push	{r4, r5, lr}
 800058c:	f44f 7460 	mov.w	r4, #896	; 0x380
 8000590:	f001 4500 	and.w	r5, r1, #2147483648	; 0x80000000
 8000594:	f021 4100 	bic.w	r1, r1, #2147483648	; 0x80000000
 8000598:	e71c      	b.n	80003d4 <__adddf3+0x138>
 800059a:	bf00      	nop

0800059c <__aeabi_ul2d>:
 800059c:	ea50 0201 	orrs.w	r2, r0, r1
 80005a0:	bf08      	it	eq
 80005a2:	4770      	bxeq	lr
 80005a4:	b530      	push	{r4, r5, lr}
 80005a6:	f04f 0500 	mov.w	r5, #0
 80005aa:	e00a      	b.n	80005c2 <__aeabi_l2d+0x16>

080005ac <__aeabi_l2d>:
 80005ac:	ea50 0201 	orrs.w	r2, r0, r1
 80005b0:	bf08      	it	eq
 80005b2:	4770      	bxeq	lr
 80005b4:	b530      	push	{r4, r5, lr}
 80005b6:	f011 4500 	ands.w	r5, r1, #2147483648	; 0x80000000
 80005ba:	d502      	bpl.n	80005c2 <__aeabi_l2d+0x16>
 80005bc:	4240      	negs	r0, r0
 80005be:	eb61 0141 	sbc.w	r1, r1, r1, lsl #1
 80005c2:	f44f 6480 	mov.w	r4, #1024	; 0x400
 80005c6:	f104 0432 	add.w	r4, r4, #50	; 0x32
 80005ca:	ea5f 5c91 	movs.w	ip, r1, lsr #22
 80005ce:	f43f aed8 	beq.w	8000382 <__adddf3+0xe6>
 80005d2:	f04f 0203 	mov.w	r2, #3
 80005d6:	ea5f 0cdc 	movs.w	ip, ip, lsr #3
 80005da:	bf18      	it	ne
 80005dc:	3203      	addne	r2, #3
 80005de:	ea5f 0cdc 	movs.w	ip, ip, lsr #3
 80005e2:	bf18      	it	ne
 80005e4:	3203      	addne	r2, #3
 80005e6:	eb02 02dc 	add.w	r2, r2, ip, lsr #3
 80005ea:	f1c2 0320 	rsb	r3, r2, #32
 80005ee:	fa00 fc03 	lsl.w	ip, r0, r3
 80005f2:	fa20 f002 	lsr.w	r0, r0, r2
 80005f6:	fa01 fe03 	lsl.w	lr, r1, r3
 80005fa:	ea40 000e 	orr.w	r0, r0, lr
 80005fe:	fa21 f102 	lsr.w	r1, r1, r2
 8000602:	4414      	add	r4, r2
 8000604:	e6bd      	b.n	8000382 <__adddf3+0xe6>
 8000606:	bf00      	nop

08000608 <__aeabi_dmul>:
 8000608:	b570      	push	{r4, r5, r6, lr}
 800060a:	f04f 0cff 	mov.w	ip, #255	; 0xff
 800060e:	f44c 6ce0 	orr.w	ip, ip, #1792	; 0x700
 8000612:	ea1c 5411 	ands.w	r4, ip, r1, lsr #20
 8000616:	bf1d      	ittte	ne
 8000618:	ea1c 5513 	andsne.w	r5, ip, r3, lsr #20
 800061c:	ea94 0f0c 	teqne	r4, ip
 8000620:	ea95 0f0c 	teqne	r5, ip
 8000624:	f000 f8de 	bleq	80007e4 <__aeabi_dmul+0x1dc>
 8000628:	442c      	add	r4, r5
 800062a:	ea81 0603 	eor.w	r6, r1, r3
 800062e:	ea21 514c 	bic.w	r1, r1, ip, lsl #21
 8000632:	ea23 534c 	bic.w	r3, r3, ip, lsl #21
 8000636:	ea50 3501 	orrs.w	r5, r0, r1, lsl #12
 800063a:	bf18      	it	ne
 800063c:	ea52 3503 	orrsne.w	r5, r2, r3, lsl #12
 8000640:	f441 1180 	orr.w	r1, r1, #1048576	; 0x100000
 8000644:	f443 1380 	orr.w	r3, r3, #1048576	; 0x100000
 8000648:	d038      	beq.n	80006bc <__aeabi_dmul+0xb4>
 800064a:	fba0 ce02 	umull	ip, lr, r0, r2
 800064e:	f04f 0500 	mov.w	r5, #0
 8000652:	fbe1 e502 	umlal	lr, r5, r1, r2
 8000656:	f006 4200 	and.w	r2, r6, #2147483648	; 0x80000000
 800065a:	fbe0 e503 	umlal	lr, r5, r0, r3
 800065e:	f04f 0600 	mov.w	r6, #0
 8000662:	fbe1 5603 	umlal	r5, r6, r1, r3
 8000666:	f09c 0f00 	teq	ip, #0
 800066a:	bf18      	it	ne
 800066c:	f04e 0e01 	orrne.w	lr, lr, #1
 8000670:	f1a4 04ff 	sub.w	r4, r4, #255	; 0xff
 8000674:	f5b6 7f00 	cmp.w	r6, #512	; 0x200
 8000678:	f564 7440 	sbc.w	r4, r4, #768	; 0x300
 800067c:	d204      	bcs.n	8000688 <__aeabi_dmul+0x80>
 800067e:	ea5f 0e4e 	movs.w	lr, lr, lsl #1
 8000682:	416d      	adcs	r5, r5
 8000684:	eb46 0606 	adc.w	r6, r6, r6
 8000688:	ea42 21c6 	orr.w	r1, r2, r6, lsl #11
 800068c:	ea41 5155 	orr.w	r1, r1, r5, lsr #21
 8000690:	ea4f 20c5 	mov.w	r0, r5, lsl #11
 8000694:	ea40 505e 	orr.w	r0, r0, lr, lsr #21
 8000698:	ea4f 2ece 	mov.w	lr, lr, lsl #11
 800069c:	f1b4 0cfd 	subs.w	ip, r4, #253	; 0xfd
 80006a0:	bf88      	it	hi
 80006a2:	f5bc 6fe0 	cmphi.w	ip, #1792	; 0x700
 80006a6:	d81e      	bhi.n	80006e6 <__aeabi_dmul+0xde>
 80006a8:	f1be 4f00 	cmp.w	lr, #2147483648	; 0x80000000
 80006ac:	bf08      	it	eq
 80006ae:	ea5f 0e50 	movseq.w	lr, r0, lsr #1
 80006b2:	f150 0000 	adcs.w	r0, r0, #0
 80006b6:	eb41 5104 	adc.w	r1, r1, r4, lsl #20
 80006ba:	bd70      	pop	{r4, r5, r6, pc}
 80006bc:	f006 4600 	and.w	r6, r6, #2147483648	; 0x80000000
 80006c0:	ea46 0101 	orr.w	r1, r6, r1
 80006c4:	ea40 0002 	orr.w	r0, r0, r2
 80006c8:	ea81 0103 	eor.w	r1, r1, r3
 80006cc:	ebb4 045c 	subs.w	r4, r4, ip, lsr #1
 80006d0:	bfc2      	ittt	gt
 80006d2:	ebd4 050c 	rsbsgt	r5, r4, ip
 80006d6:	ea41 5104 	orrgt.w	r1, r1, r4, lsl #20
 80006da:	bd70      	popgt	{r4, r5, r6, pc}
 80006dc:	f441 1180 	orr.w	r1, r1, #1048576	; 0x100000
 80006e0:	f04f 0e00 	mov.w	lr, #0
 80006e4:	3c01      	subs	r4, #1
 80006e6:	f300 80ab 	bgt.w	8000840 <__aeabi_dmul+0x238>
 80006ea:	f114 0f36 	cmn.w	r4, #54	; 0x36
 80006ee:	bfde      	ittt	le
 80006f0:	2000      	movle	r0, #0
 80006f2:	f001 4100 	andle.w	r1, r1, #2147483648	; 0x80000000
 80006f6:	bd70      	pople	{r4, r5, r6, pc}
 80006f8:	f1c4 0400 	rsb	r4, r4, #0
 80006fc:	3c20      	subs	r4, #32
 80006fe:	da35      	bge.n	800076c <__aeabi_dmul+0x164>
 8000700:	340c      	adds	r4, #12
 8000702:	dc1b      	bgt.n	800073c <__aeabi_dmul+0x134>
 8000704:	f104 0414 	add.w	r4, r4, #20
 8000708:	f1c4 0520 	rsb	r5, r4, #32
 800070c:	fa00 f305 	lsl.w	r3, r0, r5
 8000710:	fa20 f004 	lsr.w	r0, r0, r4
 8000714:	fa01 f205 	lsl.w	r2, r1, r5
 8000718:	ea40 0002 	orr.w	r0, r0, r2
 800071c:	f001 4200 	and.w	r2, r1, #2147483648	; 0x80000000
 8000720:	f021 4100 	bic.w	r1, r1, #2147483648	; 0x80000000
 8000724:	eb10 70d3 	adds.w	r0, r0, r3, lsr #31
 8000728:	fa21 f604 	lsr.w	r6, r1, r4
 800072c:	eb42 0106 	adc.w	r1, r2, r6
 8000730:	ea5e 0e43 	orrs.w	lr, lr, r3, lsl #1
 8000734:	bf08      	it	eq
 8000736:	ea20 70d3 	biceq.w	r0, r0, r3, lsr #31
 800073a:	bd70      	pop	{r4, r5, r6, pc}
 800073c:	f1c4 040c 	rsb	r4, r4, #12
 8000740:	f1c4 0520 	rsb	r5, r4, #32
 8000744:	fa00 f304 	lsl.w	r3, r0, r4
 8000748:	fa20 f005 	lsr.w	r0, r0, r5
 800074c:	fa01 f204 	lsl.w	r2, r1, r4
 8000750:	ea40 0002 	orr.w	r0, r0, r2
 8000754:	f001 4100 	and.w	r1, r1, #2147483648	; 0x80000000
 8000758:	eb10 70d3 	adds.w	r0, r0, r3, lsr #31
 800075c:	f141 0100 	adc.w	r1, r1, #0
 8000760:	ea5e 0e43 	orrs.w	lr, lr, r3, lsl #1
 8000764:	bf08      	it	eq
 8000766:	ea20 70d3 	biceq.w	r0, r0, r3, lsr #31
 800076a:	bd70      	pop	{r4, r5, r6, pc}
 800076c:	f1c4 0520 	rsb	r5, r4, #32
 8000770:	fa00 f205 	lsl.w	r2, r0, r5
 8000774:	ea4e 0e02 	orr.w	lr, lr, r2
 8000778:	fa20 f304 	lsr.w	r3, r0, r4
 800077c:	fa01 f205 	lsl.w	r2, r1, r5
 8000780:	ea43 0302 	orr.w	r3, r3, r2
 8000784:	fa21 f004 	lsr.w	r0, r1, r4
 8000788:	f001 4100 	and.w	r1, r1, #2147483648	; 0x80000000
 800078c:	fa21 f204 	lsr.w	r2, r1, r4
 8000790:	ea20 0002 	bic.w	r0, r0, r2
 8000794:	eb00 70d3 	add.w	r0, r0, r3, lsr #31
 8000798:	ea5e 0e43 	orrs.w	lr, lr, r3, lsl #1
 800079c:	bf08      	it	eq
 800079e:	ea20 70d3 	biceq.w	r0, r0, r3, lsr #31
 80007a2:	bd70      	pop	{r4, r5, r6, pc}
 80007a4:	f094 0f00 	teq	r4, #0
 80007a8:	d10f      	bne.n	80007ca <__aeabi_dmul+0x1c2>
 80007aa:	f001 4600 	and.w	r6, r1, #2147483648	; 0x80000000
 80007ae:	0040      	lsls	r0, r0, #1
 80007b0:	eb41 0101 	adc.w	r1, r1, r1
 80007b4:	f411 1f80 	tst.w	r1, #1048576	; 0x100000
 80007b8:	bf08      	it	eq
 80007ba:	3c01      	subeq	r4, #1
 80007bc:	d0f7      	beq.n	80007ae <__aeabi_dmul+0x1a6>
 80007be:	ea41 0106 	orr.w	r1, r1, r6
 80007c2:	f095 0f00 	teq	r5, #0
 80007c6:	bf18      	it	ne
 80007c8:	4770      	bxne	lr
 80007ca:	f003 4600 	and.w	r6, r3, #2147483648	; 0x80000000
 80007ce:	0052      	lsls	r2, r2, #1
 80007d0:	eb43 0303 	adc.w	r3, r3, r3
 80007d4:	f413 1f80 	tst.w	r3, #1048576	; 0x100000
 80007d8:	bf08      	it	eq
 80007da:	3d01      	subeq	r5, #1
 80007dc:	d0f7      	beq.n	80007ce <__aeabi_dmul+0x1c6>
 80007de:	ea43 0306 	orr.w	r3, r3, r6
 80007e2:	4770      	bx	lr
 80007e4:	ea94 0f0c 	teq	r4, ip
 80007e8:	ea0c 5513 	and.w	r5, ip, r3, lsr #20
 80007ec:	bf18      	it	ne
 80007ee:	ea95 0f0c 	teqne	r5, ip
 80007f2:	d00c      	beq.n	800080e <__aeabi_dmul+0x206>
 80007f4:	ea50 0641 	orrs.w	r6, r0, r1, lsl #1
 80007f8:	bf18      	it	ne
 80007fa:	ea52 0643 	orrsne.w	r6, r2, r3, lsl #1
 80007fe:	d1d1      	bne.n	80007a4 <__aeabi_dmul+0x19c>
 8000800:	ea81 0103 	eor.w	r1, r1, r3
 8000804:	f001 4100 	and.w	r1, r1, #2147483648	; 0x80000000
 8000808:	f04f 0000 	mov.w	r0, #0
 800080c:	bd70      	pop	{r4, r5, r6, pc}
 800080e:	ea50 0641 	orrs.w	r6, r0, r1, lsl #1
 8000812:	bf06      	itte	eq
 8000814:	4610      	moveq	r0, r2
 8000816:	4619      	moveq	r1, r3
 8000818:	ea52 0643 	orrsne.w	r6, r2, r3, lsl #1
 800081c:	d019      	beq.n	8000852 <__aeabi_dmul+0x24a>
 800081e:	ea94 0f0c 	teq	r4, ip
 8000822:	d102      	bne.n	800082a <__aeabi_dmul+0x222>
 8000824:	ea50 3601 	orrs.w	r6, r0, r1, lsl #12
 8000828:	d113      	bne.n	8000852 <__aeabi_dmul+0x24a>
 800082a:	ea95 0f0c 	teq	r5, ip
 800082e:	d105      	bne.n	800083c <__aeabi_dmul+0x234>
 8000830:	ea52 3603 	orrs.w	r6, r2, r3, lsl #12
 8000834:	bf1c      	itt	ne
 8000836:	4610      	movne	r0, r2
 8000838:	4619      	movne	r1, r3
 800083a:	d10a      	bne.n	8000852 <__aeabi_dmul+0x24a>
 800083c:	ea81 0103 	eor.w	r1, r1, r3
 8000840:	f001 4100 	and.w	r1, r1, #2147483648	; 0x80000000
 8000844:	f041 41fe 	orr.w	r1, r1, #2130706432	; 0x7f000000
 8000848:	f441 0170 	orr.w	r1, r1, #15728640	; 0xf00000
 800084c:	f04f 0000 	mov.w	r0, #0
 8000850:	bd70      	pop	{r4, r5, r6, pc}
 8000852:	f041 41fe 	orr.w	r1, r1, #2130706432	; 0x7f000000
 8000856:	f441 0178 	orr.w	r1, r1, #16252928	; 0xf80000
 800085a:	bd70      	pop	{r4, r5, r6, pc}

0800085c <__aeabi_ddiv>:
 800085c:	b570      	push	{r4, r5, r6, lr}
 800085e:	f04f 0cff 	mov.w	ip, #255	; 0xff
 8000862:	f44c 6ce0 	orr.w	ip, ip, #1792	; 0x700
 8000866:	ea1c 5411 	ands.w	r4, ip, r1, lsr #20
 800086a:	bf1d      	ittte	ne
 800086c:	ea1c 5513 	andsne.w	r5, ip, r3, lsr #20
 8000870:	ea94 0f0c 	teqne	r4, ip
 8000874:	ea95 0f0c 	teqne	r5, ip
 8000878:	f000 f8a7 	bleq	80009ca <__aeabi_ddiv+0x16e>
 800087c:	eba4 0405 	sub.w	r4, r4, r5
 8000880:	ea81 0e03 	eor.w	lr, r1, r3
 8000884:	ea52 3503 	orrs.w	r5, r2, r3, lsl #12
 8000888:	ea4f 3101 	mov.w	r1, r1, lsl #12
 800088c:	f000 8088 	beq.w	80009a0 <__aeabi_ddiv+0x144>
 8000890:	ea4f 3303 	mov.w	r3, r3, lsl #12
 8000894:	f04f 5580 	mov.w	r5, #268435456	; 0x10000000
 8000898:	ea45 1313 	orr.w	r3, r5, r3, lsr #4
 800089c:	ea43 6312 	orr.w	r3, r3, r2, lsr #24
 80008a0:	ea4f 2202 	mov.w	r2, r2, lsl #8
 80008a4:	ea45 1511 	orr.w	r5, r5, r1, lsr #4
 80008a8:	ea45 6510 	orr.w	r5, r5, r0, lsr #24
 80008ac:	ea4f 2600 	mov.w	r6, r0, lsl #8
 80008b0:	f00e 4100 	and.w	r1, lr, #2147483648	; 0x80000000
 80008b4:	429d      	cmp	r5, r3
 80008b6:	bf08      	it	eq
 80008b8:	4296      	cmpeq	r6, r2
 80008ba:	f144 04fd 	adc.w	r4, r4, #253	; 0xfd
 80008be:	f504 7440 	add.w	r4, r4, #768	; 0x300
 80008c2:	d202      	bcs.n	80008ca <__aeabi_ddiv+0x6e>
 80008c4:	085b      	lsrs	r3, r3, #1
 80008c6:	ea4f 0232 	mov.w	r2, r2, rrx
 80008ca:	1ab6      	subs	r6, r6, r2
 80008cc:	eb65 0503 	sbc.w	r5, r5, r3
 80008d0:	085b      	lsrs	r3, r3, #1
 80008d2:	ea4f 0232 	mov.w	r2, r2, rrx
 80008d6:	f44f 1080 	mov.w	r0, #1048576	; 0x100000
 80008da:	f44f 2c00 	mov.w	ip, #524288	; 0x80000
 80008de:	ebb6 0e02 	subs.w	lr, r6, r2
 80008e2:	eb75 0e03 	sbcs.w	lr, r5, r3
 80008e6:	bf22      	ittt	cs
 80008e8:	1ab6      	subcs	r6, r6, r2
 80008ea:	4675      	movcs	r5, lr
 80008ec:	ea40 000c 	orrcs.w	r0, r0, ip
 80008f0:	085b      	lsrs	r3, r3, #1
 80008f2:	ea4f 0232 	mov.w	r2, r2, rrx
 80008f6:	ebb6 0e02 	subs.w	lr, r6, r2
 80008fa:	eb75 0e03 	sbcs.w	lr, r5, r3
 80008fe:	bf22      	ittt	cs
 8000900:	1ab6      	subcs	r6, r6, r2
 8000902:	4675      	movcs	r5, lr
 8000904:	ea40 005c 	orrcs.w	r0, r0, ip, lsr #1
 8000908:	085b      	lsrs	r3, r3, #1
 800090a:	ea4f 0232 	mov.w	r2, r2, rrx
 800090e:	ebb6 0e02 	subs.w	lr, r6, r2
 8000912:	eb75 0e03 	sbcs.w	lr, r5, r3
 8000916:	bf22      	ittt	cs
 8000918:	1ab6      	subcs	r6, r6, r2
 800091a:	4675      	movcs	r5, lr
 800091c:	ea40 009c 	orrcs.w	r0, r0, ip, lsr #2
 8000920:	085b      	lsrs	r3, r3, #1
 8000922:	ea4f 0232 	mov.w	r2, r2, rrx
 8000926:	ebb6 0e02 	subs.w	lr, r6, r2
 800092a:	eb75 0e03 	sbcs.w	lr, r5, r3
 800092e:	bf22      	ittt	cs
 8000930:	1ab6      	subcs	r6, r6, r2
 8000932:	4675      	movcs	r5, lr
 8000934:	ea40 00dc 	orrcs.w	r0, r0, ip, lsr #3
 8000938:	ea55 0e06 	orrs.w	lr, r5, r6
 800093c:	d018      	beq.n	8000970 <__aeabi_ddiv+0x114>
 800093e:	ea4f 1505 	mov.w	r5, r5, lsl #4
 8000942:	ea45 7516 	orr.w	r5, r5, r6, lsr #28
 8000946:	ea4f 1606 	mov.w	r6, r6, lsl #4
 800094a:	ea4f 03c3 	mov.w	r3, r3, lsl #3
 800094e:	ea43 7352 	orr.w	r3, r3, r2, lsr #29
 8000952:	ea4f 02c2 	mov.w	r2, r2, lsl #3
 8000956:	ea5f 1c1c 	movs.w	ip, ip, lsr #4
 800095a:	d1c0      	bne.n	80008de <__aeabi_ddiv+0x82>
 800095c:	f411 1f80 	tst.w	r1, #1048576	; 0x100000
 8000960:	d10b      	bne.n	800097a <__aeabi_ddiv+0x11e>
 8000962:	ea41 0100 	orr.w	r1, r1, r0
 8000966:	f04f 0000 	mov.w	r0, #0
 800096a:	f04f 4c00 	mov.w	ip, #2147483648	; 0x80000000
 800096e:	e7b6      	b.n	80008de <__aeabi_ddiv+0x82>
 8000970:	f411 1f80 	tst.w	r1, #1048576	; 0x100000
 8000974:	bf04      	itt	eq
 8000976:	4301      	orreq	r1, r0
 8000978:	2000      	moveq	r0, #0
 800097a:	f1b4 0cfd 	subs.w	ip, r4, #253	; 0xfd
 800097e:	bf88      	it	hi
 8000980:	f5bc 6fe0 	cmphi.w	ip, #1792	; 0x700
 8000984:	f63f aeaf 	bhi.w	80006e6 <__aeabi_dmul+0xde>
 8000988:	ebb5 0c03 	subs.w	ip, r5, r3
 800098c:	bf04      	itt	eq
 800098e:	ebb6 0c02 	subseq.w	ip, r6, r2
 8000992:	ea5f 0c50 	movseq.w	ip, r0, lsr #1
 8000996:	f150 0000 	adcs.w	r0, r0, #0
 800099a:	eb41 5104 	adc.w	r1, r1, r4, lsl #20
 800099e:	bd70      	pop	{r4, r5, r6, pc}
 80009a0:	f00e 4e00 	and.w	lr, lr, #2147483648	; 0x80000000
 80009a4:	ea4e 3111 	orr.w	r1, lr, r1, lsr #12
 80009a8:	eb14 045c 	adds.w	r4, r4, ip, lsr #1
 80009ac:	bfc2      	ittt	gt
 80009ae:	ebd4 050c 	rsbsgt	r5, r4, ip
 80009b2:	ea41 5104 	orrgt.w	r1, r1, r4, lsl #20
 80009b6:	bd70      	popgt	{r4, r5, r6, pc}
 80009b8:	f441 1180 	orr.w	r1, r1, #1048576	; 0x100000
 80009bc:	f04f 0e00 	mov.w	lr, #0
 80009c0:	3c01      	subs	r4, #1
 80009c2:	e690      	b.n	80006e6 <__aeabi_dmul+0xde>
 80009c4:	ea45 0e06 	orr.w	lr, r5, r6
 80009c8:	e68d      	b.n	80006e6 <__aeabi_dmul+0xde>
 80009ca:	ea0c 5513 	and.w	r5, ip, r3, lsr #20
 80009ce:	ea94 0f0c 	teq	r4, ip
 80009d2:	bf08      	it	eq
 80009d4:	ea95 0f0c 	teqeq	r5, ip
 80009d8:	f43f af3b 	beq.w	8000852 <__aeabi_dmul+0x24a>
 80009dc:	ea94 0f0c 	teq	r4, ip
 80009e0:	d10a      	bne.n	80009f8 <__aeabi_ddiv+0x19c>
 80009e2:	ea50 3401 	orrs.w	r4, r0, r1, lsl #12
 80009e6:	f47f af34 	bne.w	8000852 <__aeabi_dmul+0x24a>
 80009ea:	ea95 0f0c 	teq	r5, ip
 80009ee:	f47f af25 	bne.w	800083c <__aeabi_dmul+0x234>
 80009f2:	4610      	mov	r0, r2
 80009f4:	4619      	mov	r1, r3
 80009f6:	e72c      	b.n	8000852 <__aeabi_dmul+0x24a>
 80009f8:	ea95 0f0c 	teq	r5, ip
 80009fc:	d106      	bne.n	8000a0c <__aeabi_ddiv+0x1b0>
 80009fe:	ea52 3503 	orrs.w	r5, r2, r3, lsl #12
 8000a02:	f43f aefd 	beq.w	8000800 <__aeabi_dmul+0x1f8>
 8000a06:	4610      	mov	r0, r2
 8000a08:	4619      	mov	r1, r3
 8000a0a:	e722      	b.n	8000852 <__aeabi_dmul+0x24a>
 8000a0c:	ea50 0641 	orrs.w	r6, r0, r1, lsl #1
 8000a10:	bf18      	it	ne
 8000a12:	ea52 0643 	orrsne.w	r6, r2, r3, lsl #1
 8000a16:	f47f aec5 	bne.w	80007a4 <__aeabi_dmul+0x19c>
 8000a1a:	ea50 0441 	orrs.w	r4, r0, r1, lsl #1
 8000a1e:	f47f af0d 	bne.w	800083c <__aeabi_dmul+0x234>
 8000a22:	ea52 0543 	orrs.w	r5, r2, r3, lsl #1
 8000a26:	f47f aeeb 	bne.w	8000800 <__aeabi_dmul+0x1f8>
 8000a2a:	e712      	b.n	8000852 <__aeabi_dmul+0x24a>

08000a2c <__gedf2>:
 8000a2c:	f04f 3cff 	mov.w	ip, #4294967295
 8000a30:	e006      	b.n	8000a40 <__cmpdf2+0x4>
 8000a32:	bf00      	nop

08000a34 <__ledf2>:
 8000a34:	f04f 0c01 	mov.w	ip, #1
 8000a38:	e002      	b.n	8000a40 <__cmpdf2+0x4>
 8000a3a:	bf00      	nop

08000a3c <__cmpdf2>:
 8000a3c:	f04f 0c01 	mov.w	ip, #1
 8000a40:	f84d cd04 	str.w	ip, [sp, #-4]!
 8000a44:	ea4f 0c41 	mov.w	ip, r1, lsl #1
 8000a48:	ea7f 5c6c 	mvns.w	ip, ip, asr #21
 8000a4c:	ea4f 0c43 	mov.w	ip, r3, lsl #1
 8000a50:	bf18      	it	ne
 8000a52:	ea7f 5c6c 	mvnsne.w	ip, ip, asr #21
 8000a56:	d01b      	beq.n	8000a90 <__cmpdf2+0x54>
 8000a58:	b001      	add	sp, #4
 8000a5a:	ea50 0c41 	orrs.w	ip, r0, r1, lsl #1
 8000a5e:	bf0c      	ite	eq
 8000a60:	ea52 0c43 	orrseq.w	ip, r2, r3, lsl #1
 8000a64:	ea91 0f03 	teqne	r1, r3
 8000a68:	bf02      	ittt	eq
 8000a6a:	ea90 0f02 	teqeq	r0, r2
 8000a6e:	2000      	moveq	r0, #0
 8000a70:	4770      	bxeq	lr
 8000a72:	f110 0f00 	cmn.w	r0, #0
 8000a76:	ea91 0f03 	teq	r1, r3
 8000a7a:	bf58      	it	pl
 8000a7c:	4299      	cmppl	r1, r3
 8000a7e:	bf08      	it	eq
 8000a80:	4290      	cmpeq	r0, r2
 8000a82:	bf2c      	ite	cs
 8000a84:	17d8      	asrcs	r0, r3, #31
 8000a86:	ea6f 70e3 	mvncc.w	r0, r3, asr #31
 8000a8a:	f040 0001 	orr.w	r0, r0, #1
 8000a8e:	4770      	bx	lr
 8000a90:	ea4f 0c41 	mov.w	ip, r1, lsl #1
 8000a94:	ea7f 5c6c 	mvns.w	ip, ip, asr #21
 8000a98:	d102      	bne.n	8000aa0 <__cmpdf2+0x64>
 8000a9a:	ea50 3c01 	orrs.w	ip, r0, r1, lsl #12
 8000a9e:	d107      	bne.n	8000ab0 <__cmpdf2+0x74>
 8000aa0:	ea4f 0c43 	mov.w	ip, r3, lsl #1
 8000aa4:	ea7f 5c6c 	mvns.w	ip, ip, asr #21
 8000aa8:	d1d6      	bne.n	8000a58 <__cmpdf2+0x1c>
 8000aaa:	ea52 3c03 	orrs.w	ip, r2, r3, lsl #12
 8000aae:	d0d3      	beq.n	8000a58 <__cmpdf2+0x1c>
 8000ab0:	f85d 0b04 	ldr.w	r0, [sp], #4
 8000ab4:	4770      	bx	lr
 8000ab6:	bf00      	nop

08000ab8 <__aeabi_cdrcmple>:
 8000ab8:	4684      	mov	ip, r0
 8000aba:	4610      	mov	r0, r2
 8000abc:	4662      	mov	r2, ip
 8000abe:	468c      	mov	ip, r1
 8000ac0:	4619      	mov	r1, r3
 8000ac2:	4663      	mov	r3, ip
 8000ac4:	e000      	b.n	8000ac8 <__aeabi_cdcmpeq>
 8000ac6:	bf00      	nop

08000ac8 <__aeabi_cdcmpeq>:
 8000ac8:	b501      	push	{r0, lr}
 8000aca:	f7ff ffb7 	bl	8000a3c <__cmpdf2>
 8000ace:	2800      	cmp	r0, #0
 8000ad0:	bf48      	it	mi
 8000ad2:	f110 0f00 	cmnmi.w	r0, #0
 8000ad6:	bd01      	pop	{r0, pc}

08000ad8 <__aeabi_dcmpeq>:
 8000ad8:	f84d ed08 	str.w	lr, [sp, #-8]!
 8000adc:	f7ff fff4 	bl	8000ac8 <__aeabi_cdcmpeq>
 8000ae0:	bf0c      	ite	eq
 8000ae2:	2001      	moveq	r0, #1
 8000ae4:	2000      	movne	r0, #0
 8000ae6:	f85d fb08 	ldr.w	pc, [sp], #8
 8000aea:	bf00      	nop

08000aec <__aeabi_dcmplt>:
 8000aec:	f84d ed08 	str.w	lr, [sp, #-8]!
 8000af0:	f7ff ffea 	bl	8000ac8 <__aeabi_cdcmpeq>
 8000af4:	bf34      	ite	cc
 8000af6:	2001      	movcc	r0, #1
 8000af8:	2000      	movcs	r0, #0
 8000afa:	f85d fb08 	ldr.w	pc, [sp], #8
 8000afe:	bf00      	nop

08000b00 <__aeabi_dcmple>:
 8000b00:	f84d ed08 	str.w	lr, [sp, #-8]!
 8000b04:	f7ff ffe0 	bl	8000ac8 <__aeabi_cdcmpeq>
 8000b08:	bf94      	ite	ls
 8000b0a:	2001      	movls	r0, #1
 8000b0c:	2000      	movhi	r0, #0
 8000b0e:	f85d fb08 	ldr.w	pc, [sp], #8
 8000b12:	bf00      	nop

08000b14 <__aeabi_dcmpge>:
 8000b14:	f84d ed08 	str.w	lr, [sp, #-8]!
 8000b18:	f7ff ffce 	bl	8000ab8 <__aeabi_cdrcmple>
 8000b1c:	bf94      	ite	ls
 8000b1e:	2001      	movls	r0, #1
 8000b20:	2000      	movhi	r0, #0
 8000b22:	f85d fb08 	ldr.w	pc, [sp], #8
 8000b26:	bf00      	nop

08000b28 <__aeabi_dcmpgt>:
 8000b28:	f84d ed08 	str.w	lr, [sp, #-8]!
 8000b2c:	f7ff ffc4 	bl	8000ab8 <__aeabi_cdrcmple>
 8000b30:	bf34      	ite	cc
 8000b32:	2001      	movcc	r0, #1
 8000b34:	2000      	movcs	r0, #0
 8000b36:	f85d fb08 	ldr.w	pc, [sp], #8
 8000b3a:	bf00      	nop

08000b3c <__aeabi_dcmpun>:
 8000b3c:	ea4f 0c41 	mov.w	ip, r1, lsl #1
 8000b40:	ea7f 5c6c 	mvns.w	ip, ip, asr #21
 8000b44:	d102      	bne.n	8000b4c <__aeabi_dcmpun+0x10>
 8000b46:	ea50 3c01 	orrs.w	ip, r0, r1, lsl #12
 8000b4a:	d10a      	bne.n	8000b62 <__aeabi_dcmpun+0x26>
 8000b4c:	ea4f 0c43 	mov.w	ip, r3, lsl #1
 8000b50:	ea7f 5c6c 	mvns.w	ip, ip, asr #21
 8000b54:	d102      	bne.n	8000b5c <__aeabi_dcmpun+0x20>
 8000b56:	ea52 3c03 	orrs.w	ip, r2, r3, lsl #12
 8000b5a:	d102      	bne.n	8000b62 <__aeabi_dcmpun+0x26>
 8000b5c:	f04f 0000 	mov.w	r0, #0
 8000b60:	4770      	bx	lr
 8000b62:	f04f 0001 	mov.w	r0, #1
 8000b66:	4770      	bx	lr

08000b68 <__aeabi_d2iz>:
 8000b68:	ea4f 0241 	mov.w	r2, r1, lsl #1
 8000b6c:	f512 1200 	adds.w	r2, r2, #2097152	; 0x200000
 8000b70:	d215      	bcs.n	8000b9e <__aeabi_d2iz+0x36>
 8000b72:	d511      	bpl.n	8000b98 <__aeabi_d2iz+0x30>
 8000b74:	f46f 7378 	mvn.w	r3, #992	; 0x3e0
 8000b78:	ebb3 5262 	subs.w	r2, r3, r2, asr #21
 8000b7c:	d912      	bls.n	8000ba4 <__aeabi_d2iz+0x3c>
 8000b7e:	ea4f 23c1 	mov.w	r3, r1, lsl #11
 8000b82:	f043 4300 	orr.w	r3, r3, #2147483648	; 0x80000000
 8000b86:	ea43 5350 	orr.w	r3, r3, r0, lsr #21
 8000b8a:	f011 4f00 	tst.w	r1, #2147483648	; 0x80000000
 8000b8e:	fa23 f002 	lsr.w	r0, r3, r2
 8000b92:	bf18      	it	ne
 8000b94:	4240      	negne	r0, r0
 8000b96:	4770      	bx	lr
 8000b98:	f04f 0000 	mov.w	r0, #0
 8000b9c:	4770      	bx	lr
 8000b9e:	ea50 3001 	orrs.w	r0, r0, r1, lsl #12
 8000ba2:	d105      	bne.n	8000bb0 <__aeabi_d2iz+0x48>
 8000ba4:	f011 4000 	ands.w	r0, r1, #2147483648	; 0x80000000
 8000ba8:	bf08      	it	eq
 8000baa:	f06f 4000 	mvneq.w	r0, #2147483648	; 0x80000000
 8000bae:	4770      	bx	lr
 8000bb0:	f04f 0000 	mov.w	r0, #0
 8000bb4:	4770      	bx	lr
 8000bb6:	bf00      	nop

08000bb8 <__NVIC_EnableIRQ>:
  \details Enables a device specific interrupt in the NVIC interrupt controller.
  \param [in]      IRQn  Device specific interrupt number.
  \note    IRQn must not be negative.
 */
__STATIC_INLINE void __NVIC_EnableIRQ(IRQn_Type IRQn)
{
 8000bb8:	b480      	push	{r7}
 8000bba:	b083      	sub	sp, #12
 8000bbc:	af00      	add	r7, sp, #0
 8000bbe:	4603      	mov	r3, r0
 8000bc0:	71fb      	strb	r3, [r7, #7]
  if ((int32_t)(IRQn) >= 0)
 8000bc2:	f997 3007 	ldrsb.w	r3, [r7, #7]
 8000bc6:	2b00      	cmp	r3, #0
 8000bc8:	db0b      	blt.n	8000be2 <__NVIC_EnableIRQ+0x2a>
  {
    NVIC->ISER[(((uint32_t)IRQn) >> 5UL)] = (uint32_t)(1UL << (((uint32_t)IRQn) & 0x1FUL));
 8000bca:	79fb      	ldrb	r3, [r7, #7]
 8000bcc:	f003 021f 	and.w	r2, r3, #31
 8000bd0:	4907      	ldr	r1, [pc, #28]	; (8000bf0 <__NVIC_EnableIRQ+0x38>)
 8000bd2:	f997 3007 	ldrsb.w	r3, [r7, #7]
 8000bd6:	095b      	lsrs	r3, r3, #5
 8000bd8:	2001      	movs	r0, #1
 8000bda:	fa00 f202 	lsl.w	r2, r0, r2
 8000bde:	f841 2023 	str.w	r2, [r1, r3, lsl #2]
  }
}
 8000be2:	bf00      	nop
 8000be4:	370c      	adds	r7, #12
 8000be6:	46bd      	mov	sp, r7
 8000be8:	f85d 7b04 	ldr.w	r7, [sp], #4
 8000bec:	4770      	bx	lr
 8000bee:	bf00      	nop
 8000bf0:	e000e100 	.word	0xe000e100

08000bf4 <__NVIC_SetPriority>:
  \param [in]      IRQn  Interrupt number.
  \param [in]  priority  Priority to set.
  \note    The priority cannot be set for every processor exception.
 */
__STATIC_INLINE void __NVIC_SetPriority(IRQn_Type IRQn, uint32_t priority)
{
 8000bf4:	b480      	push	{r7}
 8000bf6:	b083      	sub	sp, #12
 8000bf8:	af00      	add	r7, sp, #0
 8000bfa:	4603      	mov	r3, r0
 8000bfc:	6039      	str	r1, [r7, #0]
 8000bfe:	71fb      	strb	r3, [r7, #7]
  if ((int32_t)(IRQn) >= 0)
 8000c00:	f997 3007 	ldrsb.w	r3, [r7, #7]
 8000c04:	2b00      	cmp	r3, #0
 8000c06:	db0a      	blt.n	8000c1e <__NVIC_SetPriority+0x2a>
  {
    NVIC->IP[((uint32_t)IRQn)]               = (uint8_t)((priority << (8U - __NVIC_PRIO_BITS)) & (uint32_t)0xFFUL);
 8000c08:	683b      	ldr	r3, [r7, #0]
 8000c0a:	b2da      	uxtb	r2, r3
 8000c0c:	490c      	ldr	r1, [pc, #48]	; (8000c40 <__NVIC_SetPriority+0x4c>)
 8000c0e:	f997 3007 	ldrsb.w	r3, [r7, #7]
 8000c12:	0112      	lsls	r2, r2, #4
 8000c14:	b2d2      	uxtb	r2, r2
 8000c16:	440b      	add	r3, r1
 8000c18:	f883 2300 	strb.w	r2, [r3, #768]	; 0x300
  }
  else
  {
    SCB->SHP[(((uint32_t)IRQn) & 0xFUL)-4UL] = (uint8_t)((priority << (8U - __NVIC_PRIO_BITS)) & (uint32_t)0xFFUL);
  }
}
 8000c1c:	e00a      	b.n	8000c34 <__NVIC_SetPriority+0x40>
    SCB->SHP[(((uint32_t)IRQn) & 0xFUL)-4UL] = (uint8_t)((priority << (8U - __NVIC_PRIO_BITS)) & (uint32_t)0xFFUL);
 8000c1e:	683b      	ldr	r3, [r7, #0]
 8000c20:	b2da      	uxtb	r2, r3
 8000c22:	4908      	ldr	r1, [pc, #32]	; (8000c44 <__NVIC_SetPriority+0x50>)
 8000c24:	79fb      	ldrb	r3, [r7, #7]
 8000c26:	f003 030f 	and.w	r3, r3, #15
 8000c2a:	3b04      	subs	r3, #4
 8000c2c:	0112      	lsls	r2, r2, #4
 8000c2e:	b2d2      	uxtb	r2, r2
 8000c30:	440b      	add	r3, r1
 8000c32:	761a      	strb	r2, [r3, #24]
}
 8000c34:	bf00      	nop
 8000c36:	370c      	adds	r7, #12
 8000c38:	46bd      	mov	sp, r7
 8000c3a:	f85d 7b04 	ldr.w	r7, [sp], #4
 8000c3e:	4770      	bx	lr
 8000c40:	e000e100 	.word	0xe000e100
 8000c44:	e000ed00 	.word	0xe000ed00

08000c48 <main>:
  * @retval 0 if success
 */

//#ifdef EXERCISE_2
int main(void)
{
 8000c48:	b580      	push	{r7, lr}
 8000c4a:	b084      	sub	sp, #16
 8000c4c:	af00      	add	r7, sp, #0
	/**
	 * ------------------CONFIGURATION USART-----------------------------
	 */

	/* Activation de l'horloge GPIOA */
	RCC->AHB1ENR |= RCC_AHB1ENR_GPIOAEN | RCC_AHB1ENR_GPIOCEN;
 8000c4e:	4b70      	ldr	r3, [pc, #448]	; (8000e10 <main+0x1c8>)
 8000c50:	6b1b      	ldr	r3, [r3, #48]	; 0x30
 8000c52:	4a6f      	ldr	r2, [pc, #444]	; (8000e10 <main+0x1c8>)
 8000c54:	f043 0305 	orr.w	r3, r3, #5
 8000c58:	6313      	str	r3, [r2, #48]	; 0x30

	/*Configuration des pins PA2 et PA3 en "alternate function" AF07*/
	GPIOA->MODER &= ~(0xF << 4);
 8000c5a:	4b6e      	ldr	r3, [pc, #440]	; (8000e14 <main+0x1cc>)
 8000c5c:	681b      	ldr	r3, [r3, #0]
 8000c5e:	4a6d      	ldr	r2, [pc, #436]	; (8000e14 <main+0x1cc>)
 8000c60:	f023 03f0 	bic.w	r3, r3, #240	; 0xf0
 8000c64:	6013      	str	r3, [r2, #0]
	GPIOA->MODER |= (0xA << 4);
 8000c66:	4b6b      	ldr	r3, [pc, #428]	; (8000e14 <main+0x1cc>)
 8000c68:	681b      	ldr	r3, [r3, #0]
 8000c6a:	4a6a      	ldr	r2, [pc, #424]	; (8000e14 <main+0x1cc>)
 8000c6c:	f043 03a0 	orr.w	r3, r3, #160	; 0xa0
 8000c70:	6013      	str	r3, [r2, #0]

	GPIOA->AFR[0] &= ~(0xFF << 8);
 8000c72:	4b68      	ldr	r3, [pc, #416]	; (8000e14 <main+0x1cc>)
 8000c74:	6a1b      	ldr	r3, [r3, #32]
 8000c76:	4a67      	ldr	r2, [pc, #412]	; (8000e14 <main+0x1cc>)
 8000c78:	f423 437f 	bic.w	r3, r3, #65280	; 0xff00
 8000c7c:	6213      	str	r3, [r2, #32]
	GPIOA->AFR[0] |= (0x77 << 8);//Alternate function AF07
 8000c7e:	4b65      	ldr	r3, [pc, #404]	; (8000e14 <main+0x1cc>)
 8000c80:	6a1b      	ldr	r3, [r3, #32]
 8000c82:	4a64      	ldr	r2, [pc, #400]	; (8000e14 <main+0x1cc>)
 8000c84:	f443 43ee 	orr.w	r3, r3, #30464	; 0x7700
 8000c88:	6213      	str	r3, [r2, #32]

	USART2_Init(115200);
 8000c8a:	f44f 30e1 	mov.w	r0, #115200	; 0x1c200
 8000c8e:	f000 fbc3 	bl	8001418 <USART2_Init>
	/**
	 * ------------------CONFIGURATION GPIOB-----------------------------
	 */

	/*Activation de l'horloge du GPIOB*/
	RCC->AHB1ENR |= RCC_AHB1ENR_GPIOBEN;
 8000c92:	4b5f      	ldr	r3, [pc, #380]	; (8000e10 <main+0x1c8>)
 8000c94:	6b1b      	ldr	r3, [r3, #48]	; 0x30
 8000c96:	4a5e      	ldr	r2, [pc, #376]	; (8000e10 <main+0x1c8>)
 8000c98:	f043 0302 	orr.w	r3, r3, #2
 8000c9c:	6313      	str	r3, [r2, #48]	; 0x30

	/* activation alternate fonction pour GPIOB pour la pin PB7*/
	GPIOB->MODER &= ~GPIO_MODER_MODER7_Msk;// mise à '10' des bits du registre MODER7 pour alternate function
 8000c9e:	4b5e      	ldr	r3, [pc, #376]	; (8000e18 <main+0x1d0>)
 8000ca0:	681b      	ldr	r3, [r3, #0]
 8000ca2:	4a5d      	ldr	r2, [pc, #372]	; (8000e18 <main+0x1d0>)
 8000ca4:	f423 4340 	bic.w	r3, r3, #49152	; 0xc000
 8000ca8:	6013      	str	r3, [r2, #0]
	GPIOB->MODER |= GPIO_MODER_MODER7_1;
 8000caa:	4b5b      	ldr	r3, [pc, #364]	; (8000e18 <main+0x1d0>)
 8000cac:	681b      	ldr	r3, [r3, #0]
 8000cae:	4a5a      	ldr	r2, [pc, #360]	; (8000e18 <main+0x1d0>)
 8000cb0:	f443 4300 	orr.w	r3, r3, #32768	; 0x8000
 8000cb4:	6013      	str	r3, [r2, #0]
	GPIOB->AFR[0] &= GPIO_AFRL_AFSEL7_Msk;// dans la data sheet, section alternate fonction mapping p45, on voit que TIM4_CH2 est mappé avec la fonction alternative AF02 sur la pin PB7
 8000cb6:	4b58      	ldr	r3, [pc, #352]	; (8000e18 <main+0x1d0>)
 8000cb8:	6a1b      	ldr	r3, [r3, #32]
 8000cba:	4a57      	ldr	r2, [pc, #348]	; (8000e18 <main+0x1d0>)
 8000cbc:	f003 4370 	and.w	r3, r3, #4026531840	; 0xf0000000
 8000cc0:	6213      	str	r3, [r2, #32]
	GPIOB->AFR[0] |= GPIO_AFRL_AFSEL7_1;
 8000cc2:	4b55      	ldr	r3, [pc, #340]	; (8000e18 <main+0x1d0>)
 8000cc4:	6a1b      	ldr	r3, [r3, #32]
 8000cc6:	4a54      	ldr	r2, [pc, #336]	; (8000e18 <main+0x1d0>)
 8000cc8:	f043 5300 	orr.w	r3, r3, #536870912	; 0x20000000
 8000ccc:	6213      	str	r3, [r2, #32]

	/* PC13 in input mode, no pull */
	 GPIOC->MODER &= ~GPIO_MODER_MODE13_Msk;
 8000cce:	4b53      	ldr	r3, [pc, #332]	; (8000e1c <main+0x1d4>)
 8000cd0:	681b      	ldr	r3, [r3, #0]
 8000cd2:	4a52      	ldr	r2, [pc, #328]	; (8000e1c <main+0x1d4>)
 8000cd4:	f023 6340 	bic.w	r3, r3, #201326592	; 0xc000000
 8000cd8:	6013      	str	r3, [r2, #0]
	 GPIOC->PUPDR &= ~GPIO_PUPDR_PUPD13_Msk;
 8000cda:	4b50      	ldr	r3, [pc, #320]	; (8000e1c <main+0x1d4>)
 8000cdc:	68db      	ldr	r3, [r3, #12]
 8000cde:	4a4f      	ldr	r2, [pc, #316]	; (8000e1c <main+0x1d4>)
 8000ce0:	f023 6340 	bic.w	r3, r3, #201326592	; 0xc000000
 8000ce4:	60d3      	str	r3, [r2, #12]
	/**
	 * ------------------CONFIGURATION TIMER 4-----------------------------
	 */

	/* activation de l'horloge */
	RCC->APB1ENR |= RCC_APB1ENR_TIM4EN;
 8000ce6:	4b4a      	ldr	r3, [pc, #296]	; (8000e10 <main+0x1c8>)
 8000ce8:	6c1b      	ldr	r3, [r3, #64]	; 0x40
 8000cea:	4a49      	ldr	r2, [pc, #292]	; (8000e10 <main+0x1c8>)
 8000cec:	f043 0304 	orr.w	r3, r3, #4
 8000cf0:	6413      	str	r3, [r2, #64]	; 0x40

	int freq_after_psc = 10000;// fréquence de 10kHz
 8000cf2:	f242 7310 	movw	r3, #10000	; 0x2710
 8000cf6:	60fb      	str	r3, [r7, #12]
	TIM4->PSC = (SystemCoreClock / freq_after_psc) -1; //psc = 1599
 8000cf8:	4b49      	ldr	r3, [pc, #292]	; (8000e20 <main+0x1d8>)
 8000cfa:	681a      	ldr	r2, [r3, #0]
 8000cfc:	68fb      	ldr	r3, [r7, #12]
 8000cfe:	fbb2 f3f3 	udiv	r3, r2, r3
 8000d02:	4a48      	ldr	r2, [pc, #288]	; (8000e24 <main+0x1dc>)
 8000d04:	3b01      	subs	r3, #1
 8000d06:	6293      	str	r3, [r2, #40]	; 0x28

	/* Calcul de la valeur désirée pour la durée de comptage */
	int update_freq = 10000; // Fréquence de 10kHz
 8000d08:	f242 7310 	movw	r3, #10000	; 0x2710
 8000d0c:	60bb      	str	r3, [r7, #8]
	int arr = SystemCoreClock / (update_freq * TIM4->PSC + 1);
 8000d0e:	4b44      	ldr	r3, [pc, #272]	; (8000e20 <main+0x1d8>)
 8000d10:	681a      	ldr	r2, [r3, #0]
 8000d12:	4b44      	ldr	r3, [pc, #272]	; (8000e24 <main+0x1dc>)
 8000d14:	6a9b      	ldr	r3, [r3, #40]	; 0x28
 8000d16:	68b9      	ldr	r1, [r7, #8]
 8000d18:	fb01 f303 	mul.w	r3, r1, r3
 8000d1c:	3301      	adds	r3, #1
 8000d1e:	fbb2 f3f3 	udiv	r3, r2, r3
 8000d22:	607b      	str	r3, [r7, #4]
	TIM4->ARR = arr;
 8000d24:	4a3f      	ldr	r2, [pc, #252]	; (8000e24 <main+0x1dc>)
 8000d26:	687b      	ldr	r3, [r7, #4]
 8000d28:	62d3      	str	r3, [r2, #44]	; 0x2c

	/* force le compteur et le prescaler à O avant le démarrage*/
	TIM4->EGR |= TIM_EGR_UG_Msk;
 8000d2a:	4b3e      	ldr	r3, [pc, #248]	; (8000e24 <main+0x1dc>)
 8000d2c:	695b      	ldr	r3, [r3, #20]
 8000d2e:	4a3d      	ldr	r2, [pc, #244]	; (8000e24 <main+0x1dc>)
 8000d30:	f043 0301 	orr.w	r3, r3, #1
 8000d34:	6153      	str	r3, [r2, #20]

	/* reset les flags */
	TIM4->SR = 0;
 8000d36:	4b3b      	ldr	r3, [pc, #236]	; (8000e24 <main+0x1dc>)
 8000d38:	2200      	movs	r2, #0
 8000d3a:	611a      	str	r2, [r3, #16]
	/**
	 * ------------------INPUT CAPTURE MODE---------------------------------
	 */

	/* désactivation input capture mode pour modification*/
	TIM4->CCER &= ~TIM_CCER_CC1E_Msk;
 8000d3c:	4b39      	ldr	r3, [pc, #228]	; (8000e24 <main+0x1dc>)
 8000d3e:	6a1b      	ldr	r3, [r3, #32]
 8000d40:	4a38      	ldr	r2, [pc, #224]	; (8000e24 <main+0x1dc>)
 8000d42:	f023 0301 	bic.w	r3, r3, #1
 8000d46:	6213      	str	r3, [r2, #32]
	TIM4->CCER &= ~TIM_CCER_CC2E_Msk;
 8000d48:	4b36      	ldr	r3, [pc, #216]	; (8000e24 <main+0x1dc>)
 8000d4a:	6a1b      	ldr	r3, [r3, #32]
 8000d4c:	4a35      	ldr	r2, [pc, #212]	; (8000e24 <main+0x1dc>)
 8000d4e:	f023 0310 	bic.w	r3, r3, #16
 8000d52:	6213      	str	r3, [r2, #32]
	/* configure capture prescaler, on met à 0 car on veut capturer tous les évènements */
	//TIM4->CCMR1 &= ~TIM_CCMR1_IC1PSC_Msk;
	//TIM4->CCMR1 &= ~TIM_CCMR1_IC2PSC_Msk;

	/*Mappe IC1 et IC2 sur TI2*/
	TIM4->CCMR1 &= ~TIM_CCMR1_CC1S_Msk;
 8000d54:	4b33      	ldr	r3, [pc, #204]	; (8000e24 <main+0x1dc>)
 8000d56:	699b      	ldr	r3, [r3, #24]
 8000d58:	4a32      	ldr	r2, [pc, #200]	; (8000e24 <main+0x1dc>)
 8000d5a:	f023 0303 	bic.w	r3, r3, #3
 8000d5e:	6193      	str	r3, [r2, #24]
	TIM4->CCMR1 |= TIM_CCMR1_CC1S_1; //met le registre à '10' pour mapper IC1 à TI2
 8000d60:	4b30      	ldr	r3, [pc, #192]	; (8000e24 <main+0x1dc>)
 8000d62:	699b      	ldr	r3, [r3, #24]
 8000d64:	4a2f      	ldr	r2, [pc, #188]	; (8000e24 <main+0x1dc>)
 8000d66:	f043 0302 	orr.w	r3, r3, #2
 8000d6a:	6193      	str	r3, [r2, #24]
	TIM4->CCMR1 &= ~TIM_CCMR1_CC2S_Msk;
 8000d6c:	4b2d      	ldr	r3, [pc, #180]	; (8000e24 <main+0x1dc>)
 8000d6e:	699b      	ldr	r3, [r3, #24]
 8000d70:	4a2c      	ldr	r2, [pc, #176]	; (8000e24 <main+0x1dc>)
 8000d72:	f423 7340 	bic.w	r3, r3, #768	; 0x300
 8000d76:	6193      	str	r3, [r2, #24]
	TIM4->CCMR1 |= TIM_CCMR1_CC2S_0;//met le registre à '01' pour mapper IC2 à TI2
 8000d78:	4b2a      	ldr	r3, [pc, #168]	; (8000e24 <main+0x1dc>)
 8000d7a:	699b      	ldr	r3, [r3, #24]
 8000d7c:	4a29      	ldr	r2, [pc, #164]	; (8000e24 <main+0x1dc>)
 8000d7e:	f443 7380 	orr.w	r3, r3, #256	; 0x100
 8000d82:	6193      	str	r3, [r2, #24]

	/*Configuration de TI2FP1 sur front montant*/
	TIM4->CCER &= ~TIM_CCER_CC1P_Msk;//met le registre à '00' pour front montant
 8000d84:	4b27      	ldr	r3, [pc, #156]	; (8000e24 <main+0x1dc>)
 8000d86:	6a1b      	ldr	r3, [r3, #32]
 8000d88:	4a26      	ldr	r2, [pc, #152]	; (8000e24 <main+0x1dc>)
 8000d8a:	f023 0302 	bic.w	r3, r3, #2
 8000d8e:	6213      	str	r3, [r2, #32]
	TIM4->CCER &= ~TIM_CCER_CC1NP_Msk;
 8000d90:	4b24      	ldr	r3, [pc, #144]	; (8000e24 <main+0x1dc>)
 8000d92:	6a1b      	ldr	r3, [r3, #32]
 8000d94:	4a23      	ldr	r2, [pc, #140]	; (8000e24 <main+0x1dc>)
 8000d96:	f023 0308 	bic.w	r3, r3, #8
 8000d9a:	6213      	str	r3, [r2, #32]

	/*Configuration de TI2FP1 sur front descendant*/
	TIM4->CCER &= TIM_CCER_CC2NP_Msk;//met les bits à '01' pour configurer TI2FP1 en front descendant
 8000d9c:	4b21      	ldr	r3, [pc, #132]	; (8000e24 <main+0x1dc>)
 8000d9e:	6a1b      	ldr	r3, [r3, #32]
 8000da0:	4a20      	ldr	r2, [pc, #128]	; (8000e24 <main+0x1dc>)
 8000da2:	f003 0380 	and.w	r3, r3, #128	; 0x80
 8000da6:	6213      	str	r3, [r2, #32]
	TIM4->CCER |= TIM_CCER_CC2P_Msk;
 8000da8:	4b1e      	ldr	r3, [pc, #120]	; (8000e24 <main+0x1dc>)
 8000daa:	6a1b      	ldr	r3, [r3, #32]
 8000dac:	4a1d      	ldr	r2, [pc, #116]	; (8000e24 <main+0x1dc>)
 8000dae:	f043 0320 	orr.w	r3, r3, #32
 8000db2:	6213      	str	r3, [r2, #32]


	/* résactivation input capture mode */
	TIM4->CCER |= TIM_CCER_CC1E_Msk;
 8000db4:	4b1b      	ldr	r3, [pc, #108]	; (8000e24 <main+0x1dc>)
 8000db6:	6a1b      	ldr	r3, [r3, #32]
 8000db8:	4a1a      	ldr	r2, [pc, #104]	; (8000e24 <main+0x1dc>)
 8000dba:	f043 0301 	orr.w	r3, r3, #1
 8000dbe:	6213      	str	r3, [r2, #32]
	TIM4->CCER |= TIM_CCER_CC2E_Msk;
 8000dc0:	4b18      	ldr	r3, [pc, #96]	; (8000e24 <main+0x1dc>)
 8000dc2:	6a1b      	ldr	r3, [r3, #32]
 8000dc4:	4a17      	ldr	r2, [pc, #92]	; (8000e24 <main+0x1dc>)
 8000dc6:	f043 0310 	orr.w	r3, r3, #16
 8000dca:	6213      	str	r3, [r2, #32]

	/*lance le compteur*/
	TIM4->CR1 |= TIM_CR1_CEN ;
 8000dcc:	4b15      	ldr	r3, [pc, #84]	; (8000e24 <main+0x1dc>)
 8000dce:	681b      	ldr	r3, [r3, #0]
 8000dd0:	4a14      	ldr	r2, [pc, #80]	; (8000e24 <main+0x1dc>)
 8000dd2:	f043 0301 	orr.w	r3, r3, #1
 8000dd6:	6013      	str	r3, [r2, #0]

	/**
	 * ------------------BOUCLE PRINCIPALE---------------------------------
	 */

	TIM4_set_periodic_IRQ(500);
 8000dd8:	f44f 70fa 	mov.w	r0, #500	; 0x1f4
 8000ddc:	f000 f9d4 	bl	8001188 <TIM4_set_periodic_IRQ>
	TIM3_set_periodic_IRQ((uint32_t) 500);
 8000de0:	f44f 70fa 	mov.w	r0, #500	; 0x1f4
 8000de4:	f000 f982 	bl	80010ec <TIM3_set_periodic_IRQ>
	TIM3_configuration();
 8000de8:	f000 f820 	bl	8000e2c <TIM3_configuration>
	USART_configuration();
 8000dec:	f000 f82e 	bl	8000e4c <USART_configuration>


	/* définit piorité de prise en compte de l'interruption au niveau du NVIC*/
	NVIC_SetPriority(USART2_IRQn,10);
 8000df0:	210a      	movs	r1, #10
 8000df2:	2026      	movs	r0, #38	; 0x26
 8000df4:	f7ff fefe 	bl	8000bf4 <__NVIC_SetPriority>
	/* autorise les interruptions au niveau du NVIC*/
	NVIC_EnableIRQ(USART2_IRQn);
 8000df8:	2026      	movs	r0, #38	; 0x26
 8000dfa:	f7ff fedd 	bl	8000bb8 <__NVIC_EnableIRQ>


	__WFI();
 8000dfe:	bf30      	wfi
	SCB->SCR |= SCB_SCR_SLEEPONEXIT_Msk;
 8000e00:	4b09      	ldr	r3, [pc, #36]	; (8000e28 <main+0x1e0>)
 8000e02:	691b      	ldr	r3, [r3, #16]
 8000e04:	4a08      	ldr	r2, [pc, #32]	; (8000e28 <main+0x1e0>)
 8000e06:	f043 0302 	orr.w	r3, r3, #2
 8000e0a:	6113      	str	r3, [r2, #16]

	while(1){}
 8000e0c:	e7fe      	b.n	8000e0c <main+0x1c4>
 8000e0e:	bf00      	nop
 8000e10:	40023800 	.word	0x40023800
 8000e14:	40020000 	.word	0x40020000
 8000e18:	40020400 	.word	0x40020400
 8000e1c:	40020800 	.word	0x40020800
 8000e20:	20000000 	.word	0x20000000
 8000e24:	40000800 	.word	0x40000800
 8000e28:	e000ed00 	.word	0xe000ed00

08000e2c <TIM3_configuration>:
	return 0;

}
#endif

void TIM3_configuration(void){
 8000e2c:	b480      	push	{r7}
 8000e2e:	af00      	add	r7, sp, #0
	RCC->APB1ENR |= RCC_APB1ENR_TIM3EN;
 8000e30:	4b05      	ldr	r3, [pc, #20]	; (8000e48 <TIM3_configuration+0x1c>)
 8000e32:	6c1b      	ldr	r3, [r3, #64]	; 0x40
 8000e34:	4a04      	ldr	r2, [pc, #16]	; (8000e48 <TIM3_configuration+0x1c>)
 8000e36:	f043 0302 	orr.w	r3, r3, #2
 8000e3a:	6413      	str	r3, [r2, #64]	; 0x40
}
 8000e3c:	bf00      	nop
 8000e3e:	46bd      	mov	sp, r7
 8000e40:	f85d 7b04 	ldr.w	r7, [sp], #4
 8000e44:	4770      	bx	lr
 8000e46:	bf00      	nop
 8000e48:	40023800 	.word	0x40023800

08000e4c <USART_configuration>:

void USART_configuration(void){
 8000e4c:	b580      	push	{r7, lr}
 8000e4e:	af00      	add	r7, sp, #0
	/* activation horloge */
	RCC->AHB1ENR |= RCC_AHB1ENR_GPIOAEN;
 8000e50:	4b0d      	ldr	r3, [pc, #52]	; (8000e88 <USART_configuration+0x3c>)
 8000e52:	6b1b      	ldr	r3, [r3, #48]	; 0x30
 8000e54:	4a0c      	ldr	r2, [pc, #48]	; (8000e88 <USART_configuration+0x3c>)
 8000e56:	f043 0301 	orr.w	r3, r3, #1
 8000e5a:	6313      	str	r3, [r2, #48]	; 0x30

	/* PA5 in alternate function mode */
	GPIOA->MODER &= ~GPIO_MODER_MODER5;
 8000e5c:	4b0b      	ldr	r3, [pc, #44]	; (8000e8c <USART_configuration+0x40>)
 8000e5e:	681b      	ldr	r3, [r3, #0]
 8000e60:	4a0a      	ldr	r2, [pc, #40]	; (8000e8c <USART_configuration+0x40>)
 8000e62:	f423 6340 	bic.w	r3, r3, #3072	; 0xc00
 8000e66:	6013      	str	r3, [r2, #0]
	GPIOA->MODER |= GPIO_MODER_MODER5_1;
 8000e68:	4b08      	ldr	r3, [pc, #32]	; (8000e8c <USART_configuration+0x40>)
 8000e6a:	681b      	ldr	r3, [r3, #0]
 8000e6c:	4a07      	ldr	r2, [pc, #28]	; (8000e8c <USART_configuration+0x40>)
 8000e6e:	f443 6300 	orr.w	r3, r3, #2048	; 0x800
 8000e72:	6013      	str	r3, [r2, #0]

	/* Alternate function AF01 */
	GPIOA->AFR[0] |= GPIO_AFRL_AFRL5_0;
 8000e74:	4b05      	ldr	r3, [pc, #20]	; (8000e8c <USART_configuration+0x40>)
 8000e76:	6a1b      	ldr	r3, [r3, #32]
 8000e78:	4a04      	ldr	r2, [pc, #16]	; (8000e8c <USART_configuration+0x40>)
 8000e7a:	f443 1380 	orr.w	r3, r3, #1048576	; 0x100000
 8000e7e:	6213      	str	r3, [r2, #32]

	TIM2_init_PWM();
 8000e80:	f000 f806 	bl	8000e90 <TIM2_init_PWM>
}
 8000e84:	bf00      	nop
 8000e86:	bd80      	pop	{r7, pc}
 8000e88:	40023800 	.word	0x40023800
 8000e8c:	40020000 	.word	0x40020000

08000e90 <TIM2_init_PWM>:


#include "pwm.h"
#include "stm32f401xe.h"

void TIM2_init_PWM(void) {
 8000e90:	b480      	push	{r7}
 8000e92:	b085      	sub	sp, #20
 8000e94:	af00      	add	r7, sp, #0

    /* Activation de TIM2 */
    RCC->APB1ENR |= RCC_APB1ENR_TIM2EN;
 8000e96:	4b29      	ldr	r3, [pc, #164]	; (8000f3c <TIM2_init_PWM+0xac>)
 8000e98:	6c1b      	ldr	r3, [r3, #64]	; 0x40
 8000e9a:	4a28      	ldr	r2, [pc, #160]	; (8000f3c <TIM2_init_PWM+0xac>)
 8000e9c:	f043 0301 	orr.w	r3, r3, #1
 8000ea0:	6413      	str	r3, [r2, #64]	; 0x40

    /* Fréquence d'horloge en sortie (counter_clock) du prescaler à 10kHz */
    int freq_after_psc = 10000;
 8000ea2:	f242 7310 	movw	r3, #10000	; 0x2710
 8000ea6:	60fb      	str	r3, [r7, #12]
    TIM2->PSC = (SystemCoreClock / freq_after_psc) -1; // psc = 1599
 8000ea8:	4b25      	ldr	r3, [pc, #148]	; (8000f40 <TIM2_init_PWM+0xb0>)
 8000eaa:	681a      	ldr	r2, [r3, #0]
 8000eac:	68fb      	ldr	r3, [r7, #12]
 8000eae:	fbb2 f3f3 	udiv	r3, r2, r3
 8000eb2:	f04f 4280 	mov.w	r2, #1073741824	; 0x40000000
 8000eb6:	3b01      	subs	r3, #1
 8000eb8:	6293      	str	r3, [r2, #40]	; 0x28

    /*
	 *Configuration de la fréquence de clignotement en prenant en compte la granularité
     */
    int update_freq = 100;
 8000eba:	2364      	movs	r3, #100	; 0x64
 8000ebc:	60bb      	str	r3, [r7, #8]
    int arr = SystemCoreClock / (update_freq * TIM2->PSC + 1);
 8000ebe:	4b20      	ldr	r3, [pc, #128]	; (8000f40 <TIM2_init_PWM+0xb0>)
 8000ec0:	681a      	ldr	r2, [r3, #0]
 8000ec2:	f04f 4380 	mov.w	r3, #1073741824	; 0x40000000
 8000ec6:	6a9b      	ldr	r3, [r3, #40]	; 0x28
 8000ec8:	68b9      	ldr	r1, [r7, #8]
 8000eca:	fb01 f303 	mul.w	r3, r1, r3
 8000ece:	3301      	adds	r3, #1
 8000ed0:	fbb2 f3f3 	udiv	r3, r2, r3
 8000ed4:	607b      	str	r3, [r7, #4]
    TIM2->ARR = arr; // Granularité de 1000
 8000ed6:	f04f 4280 	mov.w	r2, #1073741824	; 0x40000000
 8000eda:	687b      	ldr	r3, [r7, #4]
 8000edc:	62d3      	str	r3, [r2, #44]	; 0x2c


    /* Configuration du mode PWM 1 : '110'*/
    TIM2->CCMR1 |= TIM_CCMR1_OC1M;
 8000ede:	f04f 4380 	mov.w	r3, #1073741824	; 0x40000000
 8000ee2:	699b      	ldr	r3, [r3, #24]
 8000ee4:	f04f 4280 	mov.w	r2, #1073741824	; 0x40000000
 8000ee8:	f043 0370 	orr.w	r3, r3, #112	; 0x70
 8000eec:	6193      	str	r3, [r2, #24]
    TIM2->CCMR1 &= ~TIM_CCMR1_OC1M_0;
 8000eee:	f04f 4380 	mov.w	r3, #1073741824	; 0x40000000
 8000ef2:	699b      	ldr	r3, [r3, #24]
 8000ef4:	f04f 4280 	mov.w	r2, #1073741824	; 0x40000000
 8000ef8:	f023 0310 	bic.w	r3, r3, #16
 8000efc:	6193      	str	r3, [r2, #24]

    /*
     * Activation de l'output
     */
    TIM2->CCER |= TIM_CCER_CC1E;
 8000efe:	f04f 4380 	mov.w	r3, #1073741824	; 0x40000000
 8000f02:	6a1b      	ldr	r3, [r3, #32]
 8000f04:	f04f 4280 	mov.w	r2, #1073741824	; 0x40000000
 8000f08:	f043 0301 	orr.w	r3, r3, #1
 8000f0c:	6213      	str	r3, [r2, #32]

	/* force le compteur et le prescaler à O avant le démarrage*/
	TIM4->EGR |= TIM_EGR_UG_Msk;
 8000f0e:	4b0d      	ldr	r3, [pc, #52]	; (8000f44 <TIM2_init_PWM+0xb4>)
 8000f10:	695b      	ldr	r3, [r3, #20]
 8000f12:	4a0c      	ldr	r2, [pc, #48]	; (8000f44 <TIM2_init_PWM+0xb4>)
 8000f14:	f043 0301 	orr.w	r3, r3, #1
 8000f18:	6153      	str	r3, [r2, #20]

	/* reset les flags */
	TIM4->SR = 0;
 8000f1a:	4b0a      	ldr	r3, [pc, #40]	; (8000f44 <TIM2_init_PWM+0xb4>)
 8000f1c:	2200      	movs	r2, #0
 8000f1e:	611a      	str	r2, [r3, #16]


    /* Lancement du compteur */
    TIM2->CR1 |= TIM_CR1_CEN;
 8000f20:	f04f 4380 	mov.w	r3, #1073741824	; 0x40000000
 8000f24:	681b      	ldr	r3, [r3, #0]
 8000f26:	f04f 4280 	mov.w	r2, #1073741824	; 0x40000000
 8000f2a:	f043 0301 	orr.w	r3, r3, #1
 8000f2e:	6013      	str	r3, [r2, #0]
}
 8000f30:	bf00      	nop
 8000f32:	3714      	adds	r7, #20
 8000f34:	46bd      	mov	sp, r7
 8000f36:	f85d 7b04 	ldr.w	r7, [sp], #4
 8000f3a:	4770      	bx	lr
 8000f3c:	40023800 	.word	0x40023800
 8000f40:	20000000 	.word	0x20000000
 8000f44:	40000800 	.word	0x40000800

08000f48 <TIM2_set_PWM>:

void TIM2_set_PWM(uint32_t duty) {
 8000f48:	b480      	push	{r7}
 8000f4a:	b083      	sub	sp, #12
 8000f4c:	af00      	add	r7, sp, #0
 8000f4e:	6078      	str	r0, [r7, #4]
    TIM2->CCR1 = (duty * TIM2->ARR) / 1000;
 8000f50:	f04f 4380 	mov.w	r3, #1073741824	; 0x40000000
 8000f54:	6adb      	ldr	r3, [r3, #44]	; 0x2c
 8000f56:	687a      	ldr	r2, [r7, #4]
 8000f58:	fb02 f303 	mul.w	r3, r2, r3
 8000f5c:	f04f 4280 	mov.w	r2, #1073741824	; 0x40000000
 8000f60:	4905      	ldr	r1, [pc, #20]	; (8000f78 <TIM2_set_PWM+0x30>)
 8000f62:	fba1 1303 	umull	r1, r3, r1, r3
 8000f66:	099b      	lsrs	r3, r3, #6
 8000f68:	6353      	str	r3, [r2, #52]	; 0x34
}
 8000f6a:	bf00      	nop
 8000f6c:	370c      	adds	r7, #12
 8000f6e:	46bd      	mov	sp, r7
 8000f70:	f85d 7b04 	ldr.w	r7, [sp], #4
 8000f74:	4770      	bx	lr
 8000f76:	bf00      	nop
 8000f78:	10624dd3 	.word	0x10624dd3

08000f7c <NMI_Handler>:
  * @brief  This function handles NMI exception.
  * @param  None
  * @retval None
  */
void NMI_Handler(void)
{
 8000f7c:	b480      	push	{r7}
 8000f7e:	af00      	add	r7, sp, #0
}
 8000f80:	bf00      	nop
 8000f82:	46bd      	mov	sp, r7
 8000f84:	f85d 7b04 	ldr.w	r7, [sp], #4
 8000f88:	4770      	bx	lr

08000f8a <HardFault_Handler>:
  * @brief  This function handles Hard Fault exception.
  * @param  None
  * @retval None
  */
void HardFault_Handler(void)
{
 8000f8a:	b480      	push	{r7}
 8000f8c:	af00      	add	r7, sp, #0
  /* Go to infinite loop when Hard Fault exception occurs */
  while (1)
 8000f8e:	e7fe      	b.n	8000f8e <HardFault_Handler+0x4>

08000f90 <MemManage_Handler>:
  * @brief  This function handles Memory Manage exception.
  * @param  None
  * @retval None
  */
void MemManage_Handler(void)
{
 8000f90:	b480      	push	{r7}
 8000f92:	af00      	add	r7, sp, #0
  /* Go to infinite loop when Memory Manage exception occurs */
  while (1)
 8000f94:	e7fe      	b.n	8000f94 <MemManage_Handler+0x4>

08000f96 <BusFault_Handler>:
  * @brief  This function handles Bus Fault exception.
  * @param  None
  * @retval None
  */
void BusFault_Handler(void)
{
 8000f96:	b480      	push	{r7}
 8000f98:	af00      	add	r7, sp, #0
  /* Go to infinite loop when Bus Fault exception occurs */
  while (1)
 8000f9a:	e7fe      	b.n	8000f9a <BusFault_Handler+0x4>

08000f9c <UsageFault_Handler>:
  * @brief  This function handles Usage Fault exception.
  * @param  None
  * @retval None
  */
void UsageFault_Handler(void)
{
 8000f9c:	b480      	push	{r7}
 8000f9e:	af00      	add	r7, sp, #0
  /* Go to infinite loop when Usage Fault exception occurs */
  while (1)
 8000fa0:	e7fe      	b.n	8000fa0 <UsageFault_Handler+0x4>

08000fa2 <SVC_Handler>:
  * @brief  This function handles SVCall exception.
  * @param  None
  * @retval None
  */
void SVC_Handler(void)
{
 8000fa2:	b480      	push	{r7}
 8000fa4:	af00      	add	r7, sp, #0
}
 8000fa6:	bf00      	nop
 8000fa8:	46bd      	mov	sp, r7
 8000faa:	f85d 7b04 	ldr.w	r7, [sp], #4
 8000fae:	4770      	bx	lr

08000fb0 <DebugMon_Handler>:
  * @brief  This function handles Debug Monitor exception.
  * @param  None
  * @retval None
  */
void DebugMon_Handler(void)
{
 8000fb0:	b480      	push	{r7}
 8000fb2:	af00      	add	r7, sp, #0
}
 8000fb4:	bf00      	nop
 8000fb6:	46bd      	mov	sp, r7
 8000fb8:	f85d 7b04 	ldr.w	r7, [sp], #4
 8000fbc:	4770      	bx	lr

08000fbe <PendSV_Handler>:
  * @brief  This function handles PendSVC exception.
  * @param  None
  * @retval None
  */
void PendSV_Handler(void)
{
 8000fbe:	b480      	push	{r7}
 8000fc0:	af00      	add	r7, sp, #0
}
 8000fc2:	bf00      	nop
 8000fc4:	46bd      	mov	sp, r7
 8000fc6:	f85d 7b04 	ldr.w	r7, [sp], #4
 8000fca:	4770      	bx	lr

08000fcc <_sbrk>:
 *
 * @param incr Memory size
 * @return Pointer to allocated memory
 */
void *_sbrk(ptrdiff_t incr)
{
 8000fcc:	b580      	push	{r7, lr}
 8000fce:	b086      	sub	sp, #24
 8000fd0:	af00      	add	r7, sp, #0
 8000fd2:	6078      	str	r0, [r7, #4]
  extern uint8_t _end; /* Symbol defined in the linker script */
  extern uint8_t _estack; /* Symbol defined in the linker script */
  extern uint32_t _Min_Stack_Size; /* Symbol defined in the linker script */
  const uint32_t stack_limit = (uint32_t)&_estack - (uint32_t)&_Min_Stack_Size;
 8000fd4:	4a14      	ldr	r2, [pc, #80]	; (8001028 <_sbrk+0x5c>)
 8000fd6:	4b15      	ldr	r3, [pc, #84]	; (800102c <_sbrk+0x60>)
 8000fd8:	1ad3      	subs	r3, r2, r3
 8000fda:	617b      	str	r3, [r7, #20]
  const uint8_t *max_heap = (uint8_t *)stack_limit;
 8000fdc:	697b      	ldr	r3, [r7, #20]
 8000fde:	613b      	str	r3, [r7, #16]
  uint8_t *prev_heap_end;

  /* Initialize heap end at first call */
  if (NULL == __sbrk_heap_end)
 8000fe0:	4b13      	ldr	r3, [pc, #76]	; (8001030 <_sbrk+0x64>)
 8000fe2:	681b      	ldr	r3, [r3, #0]
 8000fe4:	2b00      	cmp	r3, #0
 8000fe6:	d102      	bne.n	8000fee <_sbrk+0x22>
  {
    __sbrk_heap_end = &_end;
 8000fe8:	4b11      	ldr	r3, [pc, #68]	; (8001030 <_sbrk+0x64>)
 8000fea:	4a12      	ldr	r2, [pc, #72]	; (8001034 <_sbrk+0x68>)
 8000fec:	601a      	str	r2, [r3, #0]
  }

  /* Protect heap from growing into the reserved MSP stack */
  if (__sbrk_heap_end + incr > max_heap)
 8000fee:	4b10      	ldr	r3, [pc, #64]	; (8001030 <_sbrk+0x64>)
 8000ff0:	681a      	ldr	r2, [r3, #0]
 8000ff2:	687b      	ldr	r3, [r7, #4]
 8000ff4:	4413      	add	r3, r2
 8000ff6:	693a      	ldr	r2, [r7, #16]
 8000ff8:	429a      	cmp	r2, r3
 8000ffa:	d207      	bcs.n	800100c <_sbrk+0x40>
  {
    errno = ENOMEM;
 8000ffc:	f000 fb18 	bl	8001630 <__errno>
 8001000:	4602      	mov	r2, r0
 8001002:	230c      	movs	r3, #12
 8001004:	6013      	str	r3, [r2, #0]
    return (void *)-1;
 8001006:	f04f 33ff 	mov.w	r3, #4294967295
 800100a:	e009      	b.n	8001020 <_sbrk+0x54>
  }

  prev_heap_end = __sbrk_heap_end;
 800100c:	4b08      	ldr	r3, [pc, #32]	; (8001030 <_sbrk+0x64>)
 800100e:	681b      	ldr	r3, [r3, #0]
 8001010:	60fb      	str	r3, [r7, #12]
  __sbrk_heap_end += incr;
 8001012:	4b07      	ldr	r3, [pc, #28]	; (8001030 <_sbrk+0x64>)
 8001014:	681a      	ldr	r2, [r3, #0]
 8001016:	687b      	ldr	r3, [r7, #4]
 8001018:	4413      	add	r3, r2
 800101a:	4a05      	ldr	r2, [pc, #20]	; (8001030 <_sbrk+0x64>)
 800101c:	6013      	str	r3, [r2, #0]

  return (void *)prev_heap_end;
 800101e:	68fb      	ldr	r3, [r7, #12]
}
 8001020:	4618      	mov	r0, r3
 8001022:	3718      	adds	r7, #24
 8001024:	46bd      	mov	sp, r7
 8001026:	bd80      	pop	{r7, pc}
 8001028:	20018000 	.word	0x20018000
 800102c:	00000400 	.word	0x00000400
 8001030:	200001f0 	.word	0x200001f0
 8001034:	20000320 	.word	0x20000320

08001038 <SystemInit>:
  *         configuration.
  * @param  None
  * @retval None
  */
void SystemInit(void)
{
 8001038:	b480      	push	{r7}
 800103a:	af00      	add	r7, sp, #0
  /* FPU settings ------------------------------------------------------------*/
  #if (__FPU_PRESENT == 1) && (__FPU_USED == 1)
    SCB->CPACR |= ((3UL << 10*2)|(3UL << 11*2));  /* set CP10 and CP11 Full Access */
 800103c:	4b06      	ldr	r3, [pc, #24]	; (8001058 <SystemInit+0x20>)
 800103e:	f8d3 3088 	ldr.w	r3, [r3, #136]	; 0x88
 8001042:	4a05      	ldr	r2, [pc, #20]	; (8001058 <SystemInit+0x20>)
 8001044:	f443 0370 	orr.w	r3, r3, #15728640	; 0xf00000
 8001048:	f8c2 3088 	str.w	r3, [r2, #136]	; 0x88

  /* Configure the Vector Table location -------------------------------------*/
#if defined(USER_VECT_TAB_ADDRESS)
  SCB->VTOR = VECT_TAB_BASE_ADDRESS | VECT_TAB_OFFSET; /* Vector Table Relocation in Internal SRAM */
#endif /* USER_VECT_TAB_ADDRESS */
}
 800104c:	bf00      	nop
 800104e:	46bd      	mov	sp, r7
 8001050:	f85d 7b04 	ldr.w	r7, [sp], #4
 8001054:	4770      	bx	lr
 8001056:	bf00      	nop
 8001058:	e000ed00 	.word	0xe000ed00

0800105c <__NVIC_EnableIRQ>:
{
 800105c:	b480      	push	{r7}
 800105e:	b083      	sub	sp, #12
 8001060:	af00      	add	r7, sp, #0
 8001062:	4603      	mov	r3, r0
 8001064:	71fb      	strb	r3, [r7, #7]
  if ((int32_t)(IRQn) >= 0)
 8001066:	f997 3007 	ldrsb.w	r3, [r7, #7]
 800106a:	2b00      	cmp	r3, #0
 800106c:	db0b      	blt.n	8001086 <__NVIC_EnableIRQ+0x2a>
    NVIC->ISER[(((uint32_t)IRQn) >> 5UL)] = (uint32_t)(1UL << (((uint32_t)IRQn) & 0x1FUL));
 800106e:	79fb      	ldrb	r3, [r7, #7]
 8001070:	f003 021f 	and.w	r2, r3, #31
 8001074:	4907      	ldr	r1, [pc, #28]	; (8001094 <__NVIC_EnableIRQ+0x38>)
 8001076:	f997 3007 	ldrsb.w	r3, [r7, #7]
 800107a:	095b      	lsrs	r3, r3, #5
 800107c:	2001      	movs	r0, #1
 800107e:	fa00 f202 	lsl.w	r2, r0, r2
 8001082:	f841 2023 	str.w	r2, [r1, r3, lsl #2]
}
 8001086:	bf00      	nop
 8001088:	370c      	adds	r7, #12
 800108a:	46bd      	mov	sp, r7
 800108c:	f85d 7b04 	ldr.w	r7, [sp], #4
 8001090:	4770      	bx	lr
 8001092:	bf00      	nop
 8001094:	e000e100 	.word	0xe000e100

08001098 <__NVIC_SetPriority>:
{
 8001098:	b480      	push	{r7}
 800109a:	b083      	sub	sp, #12
 800109c:	af00      	add	r7, sp, #0
 800109e:	4603      	mov	r3, r0
 80010a0:	6039      	str	r1, [r7, #0]
 80010a2:	71fb      	strb	r3, [r7, #7]
  if ((int32_t)(IRQn) >= 0)
 80010a4:	f997 3007 	ldrsb.w	r3, [r7, #7]
 80010a8:	2b00      	cmp	r3, #0
 80010aa:	db0a      	blt.n	80010c2 <__NVIC_SetPriority+0x2a>
    NVIC->IP[((uint32_t)IRQn)]               = (uint8_t)((priority << (8U - __NVIC_PRIO_BITS)) & (uint32_t)0xFFUL);
 80010ac:	683b      	ldr	r3, [r7, #0]
 80010ae:	b2da      	uxtb	r2, r3
 80010b0:	490c      	ldr	r1, [pc, #48]	; (80010e4 <__NVIC_SetPriority+0x4c>)
 80010b2:	f997 3007 	ldrsb.w	r3, [r7, #7]
 80010b6:	0112      	lsls	r2, r2, #4
 80010b8:	b2d2      	uxtb	r2, r2
 80010ba:	440b      	add	r3, r1
 80010bc:	f883 2300 	strb.w	r2, [r3, #768]	; 0x300
}
 80010c0:	e00a      	b.n	80010d8 <__NVIC_SetPriority+0x40>
    SCB->SHP[(((uint32_t)IRQn) & 0xFUL)-4UL] = (uint8_t)((priority << (8U - __NVIC_PRIO_BITS)) & (uint32_t)0xFFUL);
 80010c2:	683b      	ldr	r3, [r7, #0]
 80010c4:	b2da      	uxtb	r2, r3
 80010c6:	4908      	ldr	r1, [pc, #32]	; (80010e8 <__NVIC_SetPriority+0x50>)
 80010c8:	79fb      	ldrb	r3, [r7, #7]
 80010ca:	f003 030f 	and.w	r3, r3, #15
 80010ce:	3b04      	subs	r3, #4
 80010d0:	0112      	lsls	r2, r2, #4
 80010d2:	b2d2      	uxtb	r2, r2
 80010d4:	440b      	add	r3, r1
 80010d6:	761a      	strb	r2, [r3, #24]
}
 80010d8:	bf00      	nop
 80010da:	370c      	adds	r7, #12
 80010dc:	46bd      	mov	sp, r7
 80010de:	f85d 7b04 	ldr.w	r7, [sp], #4
 80010e2:	4770      	bx	lr
 80010e4:	e000e100 	.word	0xe000e100
 80010e8:	e000ed00 	.word	0xe000ed00

080010ec <TIM3_set_periodic_IRQ>:


#include "timer.h"


void TIM3_set_periodic_IRQ(uint32_t ms){
 80010ec:	b580      	push	{r7, lr}
 80010ee:	b082      	sub	sp, #8
 80010f0:	af00      	add	r7, sp, #0
 80010f2:	6078      	str	r0, [r7, #4]

	/* définit piorité de prise en compte de l'interruption au niveau du NVIC*/
	NVIC_SetPriority(TIM3_IRQn,10);
 80010f4:	210a      	movs	r1, #10
 80010f6:	201d      	movs	r0, #29
 80010f8:	f7ff ffce 	bl	8001098 <__NVIC_SetPriority>
	/* autorise les interruptions au niveau du NVIC*/
	NVIC_EnableIRQ(TIM3_IRQn);
 80010fc:	201d      	movs	r0, #29
 80010fe:	f7ff ffad 	bl	800105c <__NVIC_EnableIRQ>
	/*autorise IRQ sur le flag UIF*/
	TIM3->DIER |= TIM_DIER_UIE;
 8001102:	4b08      	ldr	r3, [pc, #32]	; (8001124 <TIM3_set_periodic_IRQ+0x38>)
 8001104:	68db      	ldr	r3, [r3, #12]
 8001106:	4a07      	ldr	r2, [pc, #28]	; (8001124 <TIM3_set_periodic_IRQ+0x38>)
 8001108:	f043 0301 	orr.w	r3, r3, #1
 800110c:	60d3      	str	r3, [r2, #12]

	TIM_set_periodic_event(ms, TIM3);
 800110e:	4905      	ldr	r1, [pc, #20]	; (8001124 <TIM3_set_periodic_IRQ+0x38>)
 8001110:	6878      	ldr	r0, [r7, #4]
 8001112:	f000 f949 	bl	80013a8 <TIM_set_periodic_event>

	index=0;
 8001116:	4b04      	ldr	r3, [pc, #16]	; (8001128 <TIM3_set_periodic_IRQ+0x3c>)
 8001118:	2200      	movs	r2, #0
 800111a:	601a      	str	r2, [r3, #0]


}
 800111c:	bf00      	nop
 800111e:	3708      	adds	r7, #8
 8001120:	46bd      	mov	sp, r7
 8001122:	bd80      	pop	{r7, pc}
 8001124:	40000400 	.word	0x40000400
 8001128:	2000030c 	.word	0x2000030c

0800112c <TIM3_IRQHandler>:
void TIM3_IRQHandler(void){
 800112c:	b580      	push	{r7, lr}
 800112e:	af00      	add	r7, sp, #0
//	/* teste si le drapeau relatif à l'interruption est à '1'et test si l'interruption relative à ce drapeau est autorisée*/
 	if((TIM3->SR & TIM_SR_UIF) && (TIM3->DIER & TIM_DIER_UIE)){
 8001130:	4b13      	ldr	r3, [pc, #76]	; (8001180 <TIM3_IRQHandler+0x54>)
 8001132:	691b      	ldr	r3, [r3, #16]
 8001134:	f003 0301 	and.w	r3, r3, #1
 8001138:	2b00      	cmp	r3, #0
 800113a:	d019      	beq.n	8001170 <TIM3_IRQHandler+0x44>
 800113c:	4b10      	ldr	r3, [pc, #64]	; (8001180 <TIM3_IRQHandler+0x54>)
 800113e:	68db      	ldr	r3, [r3, #12]
 8001140:	f003 0301 	and.w	r3, r3, #1
 8001144:	2b00      	cmp	r3, #0
 8001146:	d013      	beq.n	8001170 <TIM3_IRQHandler+0x44>
 		TIM2_set_PWM(index*100);
 8001148:	4b0e      	ldr	r3, [pc, #56]	; (8001184 <TIM3_IRQHandler+0x58>)
 800114a:	681b      	ldr	r3, [r3, #0]
 800114c:	2264      	movs	r2, #100	; 0x64
 800114e:	fb02 f303 	mul.w	r3, r2, r3
 8001152:	4618      	mov	r0, r3
 8001154:	f7ff fef8 	bl	8000f48 <TIM2_set_PWM>
 		index++;
 8001158:	4b0a      	ldr	r3, [pc, #40]	; (8001184 <TIM3_IRQHandler+0x58>)
 800115a:	681b      	ldr	r3, [r3, #0]
 800115c:	3301      	adds	r3, #1
 800115e:	4a09      	ldr	r2, [pc, #36]	; (8001184 <TIM3_IRQHandler+0x58>)
 8001160:	6013      	str	r3, [r2, #0]
		if(index>10)
 8001162:	4b08      	ldr	r3, [pc, #32]	; (8001184 <TIM3_IRQHandler+0x58>)
 8001164:	681b      	ldr	r3, [r3, #0]
 8001166:	2b0a      	cmp	r3, #10
 8001168:	dd02      	ble.n	8001170 <TIM3_IRQHandler+0x44>
			index=0;
 800116a:	4b06      	ldr	r3, [pc, #24]	; (8001184 <TIM3_IRQHandler+0x58>)
 800116c:	2200      	movs	r2, #0
 800116e:	601a      	str	r2, [r3, #0]
 	}
 	/*remise à 0 du drapeau d'état*/
 	TIM3->SR &= ~TIM_SR_UIF;
 8001170:	4b03      	ldr	r3, [pc, #12]	; (8001180 <TIM3_IRQHandler+0x54>)
 8001172:	691b      	ldr	r3, [r3, #16]
 8001174:	4a02      	ldr	r2, [pc, #8]	; (8001180 <TIM3_IRQHandler+0x54>)
 8001176:	f023 0301 	bic.w	r3, r3, #1
 800117a:	6113      	str	r3, [r2, #16]
}
 800117c:	bf00      	nop
 800117e:	bd80      	pop	{r7, pc}
 8001180:	40000400 	.word	0x40000400
 8001184:	2000030c 	.word	0x2000030c

08001188 <TIM4_set_periodic_IRQ>:

void TIM4_set_periodic_IRQ(uint32_t ms){
 8001188:	b580      	push	{r7, lr}
 800118a:	b082      	sub	sp, #8
 800118c:	af00      	add	r7, sp, #0
 800118e:	6078      	str	r0, [r7, #4]

	/* définit piorité de prise en compte de l'interruption au niveau du NVIC*/
	NVIC_SetPriority(TIM4_IRQn,10);
 8001190:	210a      	movs	r1, #10
 8001192:	201e      	movs	r0, #30
 8001194:	f7ff ff80 	bl	8001098 <__NVIC_SetPriority>
	/* autorise les interruptions au niveau du NVIC*/
	NVIC_EnableIRQ(TIM4_IRQn);
 8001198:	201e      	movs	r0, #30
 800119a:	f7ff ff5f 	bl	800105c <__NVIC_EnableIRQ>

	/*autorise IRQ sur le flag CC2IF*/
	TIM4->DIER |= TIM_DIER_CC2IE;
 800119e:	4b15      	ldr	r3, [pc, #84]	; (80011f4 <TIM4_set_periodic_IRQ+0x6c>)
 80011a0:	68db      	ldr	r3, [r3, #12]
 80011a2:	4a14      	ldr	r2, [pc, #80]	; (80011f4 <TIM4_set_periodic_IRQ+0x6c>)
 80011a4:	f043 0304 	orr.w	r3, r3, #4
 80011a8:	60d3      	str	r3, [r2, #12]
	/*autorise IRQ sur le flag CC2IF*/
	TIM4->DIER |= TIM_DIER_CC1IE;
 80011aa:	4b12      	ldr	r3, [pc, #72]	; (80011f4 <TIM4_set_periodic_IRQ+0x6c>)
 80011ac:	68db      	ldr	r3, [r3, #12]
 80011ae:	4a11      	ldr	r2, [pc, #68]	; (80011f4 <TIM4_set_periodic_IRQ+0x6c>)
 80011b0:	f043 0302 	orr.w	r3, r3, #2
 80011b4:	60d3      	str	r3, [r2, #12]
	/*autorise IRQ sur le flag UIF*/
	TIM4->DIER |= TIM_DIER_UIE;
 80011b6:	4b0f      	ldr	r3, [pc, #60]	; (80011f4 <TIM4_set_periodic_IRQ+0x6c>)
 80011b8:	68db      	ldr	r3, [r3, #12]
 80011ba:	4a0e      	ldr	r2, [pc, #56]	; (80011f4 <TIM4_set_periodic_IRQ+0x6c>)
 80011bc:	f043 0301 	orr.w	r3, r3, #1
 80011c0:	60d3      	str	r3, [r2, #12]


	TIM_set_periodic_event(ms, TIM4);
 80011c2:	490c      	ldr	r1, [pc, #48]	; (80011f4 <TIM4_set_periodic_IRQ+0x6c>)
 80011c4:	6878      	ldr	r0, [r7, #4]
 80011c6:	f000 f8ef 	bl	80013a8 <TIM_set_periodic_event>

	duration=0;
 80011ca:	4b0b      	ldr	r3, [pc, #44]	; (80011f8 <TIM4_set_periodic_IRQ+0x70>)
 80011cc:	f04f 0200 	mov.w	r2, #0
 80011d0:	601a      	str	r2, [r3, #0]
	begin=0;
 80011d2:	4b0a      	ldr	r3, [pc, #40]	; (80011fc <TIM4_set_periodic_IRQ+0x74>)
 80011d4:	2200      	movs	r2, #0
 80011d6:	801a      	strh	r2, [r3, #0]
	end=0;
 80011d8:	4b09      	ldr	r3, [pc, #36]	; (8001200 <TIM4_set_periodic_IRQ+0x78>)
 80011da:	2200      	movs	r2, #0
 80011dc:	801a      	strh	r2, [r3, #0]
	nb_overflows=0;
 80011de:	4b09      	ldr	r3, [pc, #36]	; (8001204 <TIM4_set_periodic_IRQ+0x7c>)
 80011e0:	2200      	movs	r2, #0
 80011e2:	801a      	strh	r2, [r3, #0]

	tim_freq=ms;
 80011e4:	687b      	ldr	r3, [r7, #4]
 80011e6:	4a08      	ldr	r2, [pc, #32]	; (8001208 <TIM4_set_periodic_IRQ+0x80>)
 80011e8:	6013      	str	r3, [r2, #0]


}
 80011ea:	bf00      	nop
 80011ec:	3708      	adds	r7, #8
 80011ee:	46bd      	mov	sp, r7
 80011f0:	bd80      	pop	{r7, pc}
 80011f2:	bf00      	nop
 80011f4:	40000800 	.word	0x40000800
 80011f8:	20000200 	.word	0x20000200
 80011fc:	20000304 	.word	0x20000304
 8001200:	200001fe 	.word	0x200001fe
 8001204:	200001fc 	.word	0x200001fc
 8001208:	20000308 	.word	0x20000308

0800120c <TIM4_IRQHandler>:
void TIM4_IRQHandler(void){
 800120c:	e92d 41f0 	stmdb	sp!, {r4, r5, r6, r7, r8, lr}
 8001210:	b086      	sub	sp, #24
 8001212:	af04      	add	r7, sp, #16
	/* pour detecter font descendant
	 * teste si le drapeau relatif à l'interruption est à '1' et  teste si l'interruption relative à ce drapeau est autorisée*/
 	if((TIM4->SR & TIM_SR_CC2IF) && (TIM4->DIER & TIM_DIER_CC2IE)){
 8001214:	4b47      	ldr	r3, [pc, #284]	; (8001334 <TIM4_IRQHandler+0x128>)
 8001216:	691b      	ldr	r3, [r3, #16]
 8001218:	f003 0304 	and.w	r3, r3, #4
 800121c:	2b00      	cmp	r3, #0
 800121e:	d013      	beq.n	8001248 <TIM4_IRQHandler+0x3c>
 8001220:	4b44      	ldr	r3, [pc, #272]	; (8001334 <TIM4_IRQHandler+0x128>)
 8001222:	68db      	ldr	r3, [r3, #12]
 8001224:	f003 0304 	and.w	r3, r3, #4
 8001228:	2b00      	cmp	r3, #0
 800122a:	d00d      	beq.n	8001248 <TIM4_IRQHandler+0x3c>
 		begin = TIM4->CCR2;
 800122c:	4b41      	ldr	r3, [pc, #260]	; (8001334 <TIM4_IRQHandler+0x128>)
 800122e:	6b9b      	ldr	r3, [r3, #56]	; 0x38
 8001230:	b29a      	uxth	r2, r3
 8001232:	4b41      	ldr	r3, [pc, #260]	; (8001338 <TIM4_IRQHandler+0x12c>)
 8001234:	801a      	strh	r2, [r3, #0]
 		//USART2_transmit_IRQ("falling edge\r\n", 14);

 	/*remise à 0 du drapeau d'état*/
	TIM3->SR &= ~TIM_SR_CC2IF;
 8001236:	4b41      	ldr	r3, [pc, #260]	; (800133c <TIM4_IRQHandler+0x130>)
 8001238:	691b      	ldr	r3, [r3, #16]
 800123a:	4a40      	ldr	r2, [pc, #256]	; (800133c <TIM4_IRQHandler+0x130>)
 800123c:	f023 0304 	bic.w	r3, r3, #4
 8001240:	6113      	str	r3, [r2, #16]
	nb_overflows=0;
 8001242:	4b3f      	ldr	r3, [pc, #252]	; (8001340 <TIM4_IRQHandler+0x134>)
 8001244:	2200      	movs	r2, #0
 8001246:	801a      	strh	r2, [r3, #0]

 	}


 	if((TIM4->SR & TIM_SR_UIF) && (TIM4->DIER & TIM_DIER_UIE)){
 8001248:	4b3a      	ldr	r3, [pc, #232]	; (8001334 <TIM4_IRQHandler+0x128>)
 800124a:	691b      	ldr	r3, [r3, #16]
 800124c:	f003 0301 	and.w	r3, r3, #1
 8001250:	2b00      	cmp	r3, #0
 8001252:	d011      	beq.n	8001278 <TIM4_IRQHandler+0x6c>
 8001254:	4b37      	ldr	r3, [pc, #220]	; (8001334 <TIM4_IRQHandler+0x128>)
 8001256:	68db      	ldr	r3, [r3, #12]
 8001258:	f003 0301 	and.w	r3, r3, #1
 800125c:	2b00      	cmp	r3, #0
 800125e:	d00b      	beq.n	8001278 <TIM4_IRQHandler+0x6c>
 		nb_overflows++;
 8001260:	4b37      	ldr	r3, [pc, #220]	; (8001340 <TIM4_IRQHandler+0x134>)
 8001262:	881b      	ldrh	r3, [r3, #0]
 8001264:	3301      	adds	r3, #1
 8001266:	b29a      	uxth	r2, r3
 8001268:	4b35      	ldr	r3, [pc, #212]	; (8001340 <TIM4_IRQHandler+0x134>)
 800126a:	801a      	strh	r2, [r3, #0]

 	/*remise à 0 du drapeau d'état*/
 		TIM4->SR &= ~TIM_SR_UIF;
 800126c:	4b31      	ldr	r3, [pc, #196]	; (8001334 <TIM4_IRQHandler+0x128>)
 800126e:	691b      	ldr	r3, [r3, #16]
 8001270:	4a30      	ldr	r2, [pc, #192]	; (8001334 <TIM4_IRQHandler+0x128>)
 8001272:	f023 0301 	bic.w	r3, r3, #1
 8001276:	6113      	str	r3, [r2, #16]



 	/* pour detecter font montant
 	* teste si le drapeau relatif à l'interruption est à '1' et  teste si l'interruption relative à ce drapeau est autorisée*/
 	if((TIM4->SR & TIM_SR_CC1IF_Msk) && (TIM4->DIER & TIM_DIER_CC1IE)){
 8001278:	4b2e      	ldr	r3, [pc, #184]	; (8001334 <TIM4_IRQHandler+0x128>)
 800127a:	691b      	ldr	r3, [r3, #16]
 800127c:	f003 0302 	and.w	r3, r3, #2
 8001280:	2b00      	cmp	r3, #0
 8001282:	d051      	beq.n	8001328 <TIM4_IRQHandler+0x11c>
 8001284:	4b2b      	ldr	r3, [pc, #172]	; (8001334 <TIM4_IRQHandler+0x128>)
 8001286:	68db      	ldr	r3, [r3, #12]
 8001288:	f003 0302 	and.w	r3, r3, #2
 800128c:	2b00      	cmp	r3, #0
 800128e:	d04b      	beq.n	8001328 <TIM4_IRQHandler+0x11c>

		end = TIM4->CCR1;//récupération de la valeur de compteur stockée dans CCR2
 8001290:	4b28      	ldr	r3, [pc, #160]	; (8001334 <TIM4_IRQHandler+0x128>)
 8001292:	6b5b      	ldr	r3, [r3, #52]	; 0x34
 8001294:	b29a      	uxth	r2, r3
 8001296:	4b2b      	ldr	r3, [pc, #172]	; (8001344 <TIM4_IRQHandler+0x138>)
 8001298:	801a      	strh	r2, [r3, #0]
		//USART2_transmit_IRQ("rising edge\r\n", 13);

		duration = compute_duration(begin, end, nb_overflows, TIM4->ARR,CK_CNT_F);
 800129a:	4b27      	ldr	r3, [pc, #156]	; (8001338 <TIM4_IRQHandler+0x12c>)
 800129c:	8818      	ldrh	r0, [r3, #0]
 800129e:	4b29      	ldr	r3, [pc, #164]	; (8001344 <TIM4_IRQHandler+0x138>)
 80012a0:	8819      	ldrh	r1, [r3, #0]
 80012a2:	4b27      	ldr	r3, [pc, #156]	; (8001340 <TIM4_IRQHandler+0x134>)
 80012a4:	881a      	ldrh	r2, [r3, #0]
 80012a6:	4b23      	ldr	r3, [pc, #140]	; (8001334 <TIM4_IRQHandler+0x128>)
 80012a8:	6adb      	ldr	r3, [r3, #44]	; 0x2c
 80012aa:	461c      	mov	r4, r3
 80012ac:	f242 7310 	movw	r3, #10000	; 0x2710
 80012b0:	9300      	str	r3, [sp, #0]
 80012b2:	4623      	mov	r3, r4
 80012b4:	f000 f84e 	bl	8001354 <compute_duration>
 80012b8:	eef0 7a40 	vmov.f32	s15, s0
 80012bc:	4b22      	ldr	r3, [pc, #136]	; (8001348 <TIM4_IRQHandler+0x13c>)
 80012be:	edc3 7a00 	vstr	s15, [r3]

		int str_len = snprintf(buffer, 255,"begin = %d, nb_of_overflows = %d, end = %d\r\n "
 80012c2:	4b1d      	ldr	r3, [pc, #116]	; (8001338 <TIM4_IRQHandler+0x12c>)
 80012c4:	881b      	ldrh	r3, [r3, #0]
 80012c6:	4698      	mov	r8, r3
 80012c8:	4b1d      	ldr	r3, [pc, #116]	; (8001340 <TIM4_IRQHandler+0x134>)
 80012ca:	881b      	ldrh	r3, [r3, #0]
 80012cc:	461d      	mov	r5, r3
 80012ce:	4b1d      	ldr	r3, [pc, #116]	; (8001344 <TIM4_IRQHandler+0x138>)
 80012d0:	881b      	ldrh	r3, [r3, #0]
 80012d2:	461e      	mov	r6, r3
 80012d4:	4b1c      	ldr	r3, [pc, #112]	; (8001348 <TIM4_IRQHandler+0x13c>)
 80012d6:	681b      	ldr	r3, [r3, #0]
 80012d8:	4618      	mov	r0, r3
 80012da:	f7ff f93d 	bl	8000558 <__aeabi_f2d>
 80012de:	4603      	mov	r3, r0
 80012e0:	460c      	mov	r4, r1
 80012e2:	e9cd 3402 	strd	r3, r4, [sp, #8]
 80012e6:	9601      	str	r6, [sp, #4]
 80012e8:	9500      	str	r5, [sp, #0]
 80012ea:	4643      	mov	r3, r8
 80012ec:	4a17      	ldr	r2, [pc, #92]	; (800134c <TIM4_IRQHandler+0x140>)
 80012ee:	21ff      	movs	r1, #255	; 0xff
 80012f0:	4817      	ldr	r0, [pc, #92]	; (8001350 <TIM4_IRQHandler+0x144>)
 80012f2:	f000 fe2b 	bl	8001f4c <sniprintf>
 80012f6:	6078      	str	r0, [r7, #4]
											"duration : %f s\r\n", begin, nb_overflows, end,duration);
		USART2_transmit_IRQ(buffer, str_len);
 80012f8:	687b      	ldr	r3, [r7, #4]
 80012fa:	4619      	mov	r1, r3
 80012fc:	4814      	ldr	r0, [pc, #80]	; (8001350 <TIM4_IRQHandler+0x144>)
 80012fe:	f000 f909 	bl	8001514 <USART2_transmit_IRQ>
		//la fréquence d'update = SystemCoreClock/(TIM4->ARR * (TIM4->PSC+1))

		duration=0;
 8001302:	4b11      	ldr	r3, [pc, #68]	; (8001348 <TIM4_IRQHandler+0x13c>)
 8001304:	f04f 0200 	mov.w	r2, #0
 8001308:	601a      	str	r2, [r3, #0]
		begin=0;
 800130a:	4b0b      	ldr	r3, [pc, #44]	; (8001338 <TIM4_IRQHandler+0x12c>)
 800130c:	2200      	movs	r2, #0
 800130e:	801a      	strh	r2, [r3, #0]
		end=0;
 8001310:	4b0c      	ldr	r3, [pc, #48]	; (8001344 <TIM4_IRQHandler+0x138>)
 8001312:	2200      	movs	r2, #0
 8001314:	801a      	strh	r2, [r3, #0]
		nb_overflows=0;
 8001316:	4b0a      	ldr	r3, [pc, #40]	; (8001340 <TIM4_IRQHandler+0x134>)
 8001318:	2200      	movs	r2, #0
 800131a:	801a      	strh	r2, [r3, #0]

 	/*remise à 0 du drapeau d'état*/
	TIM4->SR &= ~TIM_SR_CC1IF_Msk;
 800131c:	4b05      	ldr	r3, [pc, #20]	; (8001334 <TIM4_IRQHandler+0x128>)
 800131e:	691b      	ldr	r3, [r3, #16]
 8001320:	4a04      	ldr	r2, [pc, #16]	; (8001334 <TIM4_IRQHandler+0x128>)
 8001322:	f023 0302 	bic.w	r3, r3, #2
 8001326:	6113      	str	r3, [r2, #16]
 	}


}
 8001328:	bf00      	nop
 800132a:	3708      	adds	r7, #8
 800132c:	46bd      	mov	sp, r7
 800132e:	e8bd 81f0 	ldmia.w	sp!, {r4, r5, r6, r7, r8, pc}
 8001332:	bf00      	nop
 8001334:	40000800 	.word	0x40000800
 8001338:	20000304 	.word	0x20000304
 800133c:	40000400 	.word	0x40000400
 8001340:	200001fc 	.word	0x200001fc
 8001344:	200001fe 	.word	0x200001fe
 8001348:	20000200 	.word	0x20000200
 800134c:	08003750 	.word	0x08003750
 8001350:	20000204 	.word	0x20000204

08001354 <compute_duration>:


float compute_duration(uint16_t begin, uint16_t end, uint16_t nb_overflows, int arr, int periode)
{
 8001354:	b480      	push	{r7}
 8001356:	b087      	sub	sp, #28
 8001358:	af00      	add	r7, sp, #0
 800135a:	607b      	str	r3, [r7, #4]
 800135c:	4603      	mov	r3, r0
 800135e:	81fb      	strh	r3, [r7, #14]
 8001360:	460b      	mov	r3, r1
 8001362:	81bb      	strh	r3, [r7, #12]
 8001364:	4613      	mov	r3, r2
 8001366:	817b      	strh	r3, [r7, #10]
	float nb_cnt = end-begin + nb_overflows*arr;//nb of tics by the counter
 8001368:	89ba      	ldrh	r2, [r7, #12]
 800136a:	89fb      	ldrh	r3, [r7, #14]
 800136c:	1ad2      	subs	r2, r2, r3
 800136e:	897b      	ldrh	r3, [r7, #10]
 8001370:	6879      	ldr	r1, [r7, #4]
 8001372:	fb01 f303 	mul.w	r3, r1, r3
 8001376:	4413      	add	r3, r2
 8001378:	ee07 3a90 	vmov	s15, r3
 800137c:	eef8 7ae7 	vcvt.f32.s32	s15, s15
 8001380:	edc7 7a05 	vstr	s15, [r7, #20]
	float ck_cnt_T =(float) 1/CK_CNT_F;//duration of 1 tic (ck_cnt) in second
 8001384:	4b07      	ldr	r3, [pc, #28]	; (80013a4 <compute_duration+0x50>)
 8001386:	613b      	str	r3, [r7, #16]

	return ck_cnt_T*nb_cnt;
 8001388:	ed97 7a04 	vldr	s14, [r7, #16]
 800138c:	edd7 7a05 	vldr	s15, [r7, #20]
 8001390:	ee67 7a27 	vmul.f32	s15, s14, s15

}
 8001394:	eeb0 0a67 	vmov.f32	s0, s15
 8001398:	371c      	adds	r7, #28
 800139a:	46bd      	mov	sp, r7
 800139c:	f85d 7b04 	ldr.w	r7, [sp], #4
 80013a0:	4770      	bx	lr
 80013a2:	bf00      	nop
 80013a4:	38d1b717 	.word	0x38d1b717

080013a8 <TIM_set_periodic_event>:
 *         so ms can go up to 65535/10 ms (65,535 secondes)
 * @param  ms : duration of the cycle
 * @retval None
 */
 void TIM_set_periodic_event(uint32_t ms, TIM_TypeDef* tim)
 {
 80013a8:	b480      	push	{r7}
 80013aa:	b085      	sub	sp, #20
 80013ac:	af00      	add	r7, sp, #0
 80013ae:	6078      	str	r0, [r7, #4]
 80013b0:	6039      	str	r1, [r7, #0]
	/* choose the counter clock frequency. */
	uint32_t ck_cnt_f = CK_CNT_F;
 80013b2:	f242 7310 	movw	r3, #10000	; 0x2710
 80013b6:	60fb      	str	r3, [r7, #12]

	/* enable tim peripheral clock on APB1 */
	RCC->APB1ENR |= RCC_APB1ENR_TIM3EN;		/* activate TIM3 Clock */
 80013b8:	4b15      	ldr	r3, [pc, #84]	; (8001410 <TIM_set_periodic_event+0x68>)
 80013ba:	6c1b      	ldr	r3, [r3, #64]	; 0x40
 80013bc:	4a14      	ldr	r2, [pc, #80]	; (8001410 <TIM_set_periodic_event+0x68>)
 80013be:	f043 0302 	orr.w	r3, r3, #2
 80013c2:	6413      	str	r3, [r2, #64]	; 0x40

	/* set prescaler to generate a clock with ck_cnt_f frequency,
	 * it is supposed here that ck_psc frequency = SystemCoreClock */
	tim->PSC = (SystemCoreClock / ck_cnt_f ) - 1;
 80013c4:	4b13      	ldr	r3, [pc, #76]	; (8001414 <TIM_set_periodic_event+0x6c>)
 80013c6:	681a      	ldr	r2, [r3, #0]
 80013c8:	68fb      	ldr	r3, [r7, #12]
 80013ca:	fbb2 f3f3 	udiv	r3, r2, r3
 80013ce:	1e5a      	subs	r2, r3, #1
 80013d0:	683b      	ldr	r3, [r7, #0]
 80013d2:	629a      	str	r2, [r3, #40]	; 0x28
	 * 			= (ARR+1) / 10000
	 * in ms : Tms = 1000 * (ARR+1) /10000 = (ARR+1)/10
	 * => ARR = 10*Tms - 1
	 * note that the autoreload register is 16 bits for TIM3 and TIM4 and
	 *  32 bits for TIM2 and TIM5 */
	tim->ARR = 10*ms - 1 ;
 80013d4:	687a      	ldr	r2, [r7, #4]
 80013d6:	4613      	mov	r3, r2
 80013d8:	009b      	lsls	r3, r3, #2
 80013da:	4413      	add	r3, r2
 80013dc:	005b      	lsls	r3, r3, #1
 80013de:	1e5a      	subs	r2, r3, #1
 80013e0:	683b      	ldr	r3, [r7, #0]
 80013e2:	62da      	str	r2, [r3, #44]	; 0x2c
	/* update counter and prescaler : it clear prescaler and counter, to start
	 * with a full cycle. It will set the Update flag  (UIF), note that it can
	 * be avoided by setting the UDIS bit in CR1
	 * see TIM3_clear_periodic_event() */
	tim->EGR = TIM_EGR_UG;
 80013e4:	683b      	ldr	r3, [r7, #0]
 80013e6:	2201      	movs	r2, #1
 80013e8:	615a      	str	r2, [r3, #20]
	/* As an update has been generated by software,
	 * clear the bit in the status register, all flags can also be cleared
	 * here
	 */
	tim->SR &= ~ TIM_SR_UIF ;
 80013ea:	683b      	ldr	r3, [r7, #0]
 80013ec:	691b      	ldr	r3, [r3, #16]
 80013ee:	f023 0201 	bic.w	r2, r3, #1
 80013f2:	683b      	ldr	r3, [r7, #0]
 80013f4:	611a      	str	r2, [r3, #16]
	/* enable the counter (start counting) */
	tim->CR1 |= TIM_CR1_CEN ;
 80013f6:	683b      	ldr	r3, [r7, #0]
 80013f8:	681b      	ldr	r3, [r3, #0]
 80013fa:	f043 0201 	orr.w	r2, r3, #1
 80013fe:	683b      	ldr	r3, [r7, #0]
 8001400:	601a      	str	r2, [r3, #0]
 }
 8001402:	bf00      	nop
 8001404:	3714      	adds	r7, #20
 8001406:	46bd      	mov	sp, r7
 8001408:	f85d 7b04 	ldr.w	r7, [sp], #4
 800140c:	4770      	bx	lr
 800140e:	bf00      	nop
 8001410:	40023800 	.word	0x40023800
 8001414:	20000000 	.word	0x20000000

08001418 <USART2_Init>:
  * @brief  Init USART2 @ baud,8,1,n
  * @param  baud rate
  * @retval None
  * */
void USART2_Init(uint32_t baud)
{
 8001418:	b480      	push	{r7}
 800141a:	b087      	sub	sp, #28
 800141c:	af00      	add	r7, sp, #0
 800141e:	6078      	str	r0, [r7, #4]
uint32_t tmp = 0, divmantissa, divfraction, apbclk;
 8001420:	2300      	movs	r3, #0
 8001422:	60bb      	str	r3, [r7, #8]

	/* initialisation de l'USART2 : baud,8,1,n */

	/* reset/de-reset USART2 */
	RCC->APB1RSTR |= RCC_APB1RSTR_USART2RST;
 8001424:	4b38      	ldr	r3, [pc, #224]	; (8001508 <USART2_Init+0xf0>)
 8001426:	6a1b      	ldr	r3, [r3, #32]
 8001428:	4a37      	ldr	r2, [pc, #220]	; (8001508 <USART2_Init+0xf0>)
 800142a:	f443 3300 	orr.w	r3, r3, #131072	; 0x20000
 800142e:	6213      	str	r3, [r2, #32]
	RCC->APB1RSTR &= ~RCC_APB1RSTR_USART2RST;
 8001430:	4b35      	ldr	r3, [pc, #212]	; (8001508 <USART2_Init+0xf0>)
 8001432:	6a1b      	ldr	r3, [r3, #32]
 8001434:	4a34      	ldr	r2, [pc, #208]	; (8001508 <USART2_Init+0xf0>)
 8001436:	f423 3300 	bic.w	r3, r3, #131072	; 0x20000
 800143a:	6213      	str	r3, [r2, #32]
	/* enable USART2 clk */
	RCC->APB1ENR |= RCC_APB1ENR_USART2EN;
 800143c:	4b32      	ldr	r3, [pc, #200]	; (8001508 <USART2_Init+0xf0>)
 800143e:	6c1b      	ldr	r3, [r3, #64]	; 0x40
 8001440:	4a31      	ldr	r2, [pc, #196]	; (8001508 <USART2_Init+0xf0>)
 8001442:	f443 3300 	orr.w	r3, r3, #131072	; 0x20000
 8001446:	6413      	str	r3, [r2, #64]	; 0x40

	/*-------------- UART parameters configuration --------------- */
	USART2->CR1 &= ~USART_CR1_UE;
 8001448:	4b30      	ldr	r3, [pc, #192]	; (800150c <USART2_Init+0xf4>)
 800144a:	68db      	ldr	r3, [r3, #12]
 800144c:	4a2f      	ldr	r2, [pc, #188]	; (800150c <USART2_Init+0xf4>)
 800144e:	f423 5300 	bic.w	r3, r3, #8192	; 0x2000
 8001452:	60d3      	str	r3, [r2, #12]
	/* USART CR1 Configuration : tx and rx enable; oversampling = 16 */
	USART2->CR1 = USART_CR1_TE | USART_CR1_RE;
 8001454:	4b2d      	ldr	r3, [pc, #180]	; (800150c <USART2_Init+0xf4>)
 8001456:	220c      	movs	r2, #12
 8001458:	60da      	str	r2, [r3, #12]
	/* USART CR2 Configuration : 1 stop bit*/
	USART2->CR2 = 0 ;
 800145a:	4b2c      	ldr	r3, [pc, #176]	; (800150c <USART2_Init+0xf4>)
 800145c:	2200      	movs	r2, #0
 800145e:	611a      	str	r2, [r3, #16]
	/* USART CR3 Configuration : no flow control*/
	USART2->CR3 = 0;
 8001460:	4b2a      	ldr	r3, [pc, #168]	; (800150c <USART2_Init+0xf4>)
 8001462:	2200      	movs	r2, #0
 8001464:	615a      	str	r2, [r3, #20]
	/* USART BRR Configuration : depend on the bus frequency*/
	/* get APB1 prescaler to determine the USART clock frequency apbclk*/
	tmp = (RCC->CFGR & RCC_CFGR_PPRE1)>>10;
 8001466:	4b28      	ldr	r3, [pc, #160]	; (8001508 <USART2_Init+0xf0>)
 8001468:	689b      	ldr	r3, [r3, #8]
 800146a:	0a9b      	lsrs	r3, r3, #10
 800146c:	f003 0307 	and.w	r3, r3, #7
 8001470:	60bb      	str	r3, [r7, #8]
	if (tmp & 4){
 8001472:	68bb      	ldr	r3, [r7, #8]
 8001474:	f003 0304 	and.w	r3, r3, #4
 8001478:	2b00      	cmp	r3, #0
 800147a:	d00b      	beq.n	8001494 <USART2_Init+0x7c>
		tmp =  (tmp & 3) + 1;
 800147c:	68bb      	ldr	r3, [r7, #8]
 800147e:	f003 0303 	and.w	r3, r3, #3
 8001482:	3301      	adds	r3, #1
 8001484:	60bb      	str	r3, [r7, #8]
		apbclk = SystemCoreClock >> tmp;
 8001486:	4b22      	ldr	r3, [pc, #136]	; (8001510 <USART2_Init+0xf8>)
 8001488:	681a      	ldr	r2, [r3, #0]
 800148a:	68bb      	ldr	r3, [r7, #8]
 800148c:	fa22 f303 	lsr.w	r3, r2, r3
 8001490:	60fb      	str	r3, [r7, #12]
 8001492:	e002      	b.n	800149a <USART2_Init+0x82>
	}
	else {
		apbclk = SystemCoreClock;
 8001494:	4b1e      	ldr	r3, [pc, #120]	; (8001510 <USART2_Init+0xf8>)
 8001496:	681b      	ldr	r3, [r3, #0]
 8001498:	60fb      	str	r3, [r7, #12]
	}

	/* compute baud rate from the apbclock frequency
	 *  baud = apbclk /(8*(2-OVER8)*USARTDIV) */

	tmp = (USART2->CR1 & USART_CR1_OVER8)>>15;
 800149a:	4b1c      	ldr	r3, [pc, #112]	; (800150c <USART2_Init+0xf4>)
 800149c:	68db      	ldr	r3, [r3, #12]
 800149e:	0bdb      	lsrs	r3, r3, #15
 80014a0:	f003 0301 	and.w	r3, r3, #1
 80014a4:	60bb      	str	r3, [r7, #8]
	if (tmp == 0) {
 80014a6:	68bb      	ldr	r3, [r7, #8]
 80014a8:	2b00      	cmp	r3, #0
 80014aa:	d10d      	bne.n	80014c8 <USART2_Init+0xb0>
		/* OVER8 = 0, div by 16 */
		divmantissa = (apbclk/baud) >> 4;
 80014ac:	68fa      	ldr	r2, [r7, #12]
 80014ae:	687b      	ldr	r3, [r7, #4]
 80014b0:	fbb2 f3f3 	udiv	r3, r2, r3
 80014b4:	091b      	lsrs	r3, r3, #4
 80014b6:	617b      	str	r3, [r7, #20]
		divfraction = (apbclk/baud) & 0xF;
 80014b8:	68fa      	ldr	r2, [r7, #12]
 80014ba:	687b      	ldr	r3, [r7, #4]
 80014bc:	fbb2 f3f3 	udiv	r3, r2, r3
 80014c0:	f003 030f 	and.w	r3, r3, #15
 80014c4:	613b      	str	r3, [r7, #16]
 80014c6:	e00c      	b.n	80014e2 <USART2_Init+0xca>
	}
	else {
		/* OVER8 = 0, div by 8 */
		divmantissa = (apbclk/baud) >> 3;
 80014c8:	68fa      	ldr	r2, [r7, #12]
 80014ca:	687b      	ldr	r3, [r7, #4]
 80014cc:	fbb2 f3f3 	udiv	r3, r2, r3
 80014d0:	08db      	lsrs	r3, r3, #3
 80014d2:	617b      	str	r3, [r7, #20]
		divfraction = (apbclk/baud) & 3;
 80014d4:	68fa      	ldr	r2, [r7, #12]
 80014d6:	687b      	ldr	r3, [r7, #4]
 80014d8:	fbb2 f3f3 	udiv	r3, r2, r3
 80014dc:	f003 0303 	and.w	r3, r3, #3
 80014e0:	613b      	str	r3, [r7, #16]
	}
	/*USART2->BRR = mantissa and fraction part*/
	USART2->BRR = (divmantissa << 4) | divfraction ;
 80014e2:	697b      	ldr	r3, [r7, #20]
 80014e4:	011a      	lsls	r2, r3, #4
 80014e6:	4909      	ldr	r1, [pc, #36]	; (800150c <USART2_Init+0xf4>)
 80014e8:	693b      	ldr	r3, [r7, #16]
 80014ea:	4313      	orrs	r3, r2
 80014ec:	608b      	str	r3, [r1, #8]


	/* enable USART */
	USART2->CR1 |= USART_CR1_UE;
 80014ee:	4b07      	ldr	r3, [pc, #28]	; (800150c <USART2_Init+0xf4>)
 80014f0:	68db      	ldr	r3, [r3, #12]
 80014f2:	4a06      	ldr	r2, [pc, #24]	; (800150c <USART2_Init+0xf4>)
 80014f4:	f443 5300 	orr.w	r3, r3, #8192	; 0x2000
 80014f8:	60d3      	str	r3, [r2, #12]

	/*-------------- interrupt --------------- */
	//NVIC_SetPriority(USART2_IRQn,0x15); /*  priority */
	//NVIC_EnableIRQ(USART2_IRQn);
}
 80014fa:	bf00      	nop
 80014fc:	371c      	adds	r7, #28
 80014fe:	46bd      	mov	sp, r7
 8001500:	f85d 7b04 	ldr.w	r7, [sp], #4
 8001504:	4770      	bx	lr
 8001506:	bf00      	nop
 8001508:	40023800 	.word	0x40023800
 800150c:	40004400 	.word	0x40004400
 8001510:	20000000 	.word	0x20000000

08001514 <USART2_transmit_IRQ>:
uint32_t USART2_Print(char* str){
    return USART2_Transmit((uint8_t*) str, strlen(str));
}


int32_t USART2_transmit_IRQ (uint8_t * data_p, uint32_t len_p){
 8001514:	b480      	push	{r7}
 8001516:	b083      	sub	sp, #12
 8001518:	af00      	add	r7, sp, #0
 800151a:	6078      	str	r0, [r7, #4]
 800151c:	6039      	str	r1, [r7, #0]

	if(USART2->CR1 & USART_CR1_TXEIE) return -1;
 800151e:	4b0f      	ldr	r3, [pc, #60]	; (800155c <USART2_transmit_IRQ+0x48>)
 8001520:	68db      	ldr	r3, [r3, #12]
 8001522:	f003 0380 	and.w	r3, r3, #128	; 0x80
 8001526:	2b00      	cmp	r3, #0
 8001528:	d002      	beq.n	8001530 <USART2_transmit_IRQ+0x1c>
 800152a:	f04f 33ff 	mov.w	r3, #4294967295
 800152e:	e00f      	b.n	8001550 <USART2_transmit_IRQ+0x3c>

	/*autorise IRQ sur le flag UIF*/
	USART2->CR1 |= USART_CR1_TXEIE;
 8001530:	4b0a      	ldr	r3, [pc, #40]	; (800155c <USART2_transmit_IRQ+0x48>)
 8001532:	68db      	ldr	r3, [r3, #12]
 8001534:	4a09      	ldr	r2, [pc, #36]	; (800155c <USART2_transmit_IRQ+0x48>)
 8001536:	f043 0380 	orr.w	r3, r3, #128	; 0x80
 800153a:	60d3      	str	r3, [r2, #12]

	data=data_p;
 800153c:	4a08      	ldr	r2, [pc, #32]	; (8001560 <USART2_transmit_IRQ+0x4c>)
 800153e:	687b      	ldr	r3, [r7, #4]
 8001540:	6013      	str	r3, [r2, #0]
	len = len_p;
 8001542:	683b      	ldr	r3, [r7, #0]
 8001544:	4a07      	ldr	r2, [pc, #28]	; (8001564 <USART2_transmit_IRQ+0x50>)
 8001546:	6013      	str	r3, [r2, #0]
	index_transmit = 0;
 8001548:	4b07      	ldr	r3, [pc, #28]	; (8001568 <USART2_transmit_IRQ+0x54>)
 800154a:	2200      	movs	r2, #0
 800154c:	601a      	str	r2, [r3, #0]

	return 0;
 800154e:	2300      	movs	r3, #0
}
 8001550:	4618      	mov	r0, r3
 8001552:	370c      	adds	r7, #12
 8001554:	46bd      	mov	sp, r7
 8001556:	f85d 7b04 	ldr.w	r7, [sp], #4
 800155a:	4770      	bx	lr
 800155c:	40004400 	.word	0x40004400
 8001560:	20000310 	.word	0x20000310
 8001564:	20000318 	.word	0x20000318
 8001568:	20000314 	.word	0x20000314

0800156c <USART2_IRQHandler>:

void USART2_IRQHandler() {
 800156c:	b480      	push	{r7}
 800156e:	af00      	add	r7, sp, #0

	if((USART2->SR & USART_SR_TXE) && (USART2->CR1 & USART_CR1_TXEIE)){
 8001570:	4b16      	ldr	r3, [pc, #88]	; (80015cc <USART2_IRQHandler+0x60>)
 8001572:	681b      	ldr	r3, [r3, #0]
 8001574:	f003 0380 	and.w	r3, r3, #128	; 0x80
 8001578:	2b00      	cmp	r3, #0
 800157a:	d012      	beq.n	80015a2 <USART2_IRQHandler+0x36>
 800157c:	4b13      	ldr	r3, [pc, #76]	; (80015cc <USART2_IRQHandler+0x60>)
 800157e:	68db      	ldr	r3, [r3, #12]
 8001580:	f003 0380 	and.w	r3, r3, #128	; 0x80
 8001584:	2b00      	cmp	r3, #0
 8001586:	d00c      	beq.n	80015a2 <USART2_IRQHandler+0x36>
		USART2->DR = *data++;
 8001588:	4b11      	ldr	r3, [pc, #68]	; (80015d0 <USART2_IRQHandler+0x64>)
 800158a:	681b      	ldr	r3, [r3, #0]
 800158c:	1c5a      	adds	r2, r3, #1
 800158e:	4910      	ldr	r1, [pc, #64]	; (80015d0 <USART2_IRQHandler+0x64>)
 8001590:	600a      	str	r2, [r1, #0]
 8001592:	781a      	ldrb	r2, [r3, #0]
 8001594:	4b0d      	ldr	r3, [pc, #52]	; (80015cc <USART2_IRQHandler+0x60>)
 8001596:	605a      	str	r2, [r3, #4]
		index_transmit++;
 8001598:	4b0e      	ldr	r3, [pc, #56]	; (80015d4 <USART2_IRQHandler+0x68>)
 800159a:	681b      	ldr	r3, [r3, #0]
 800159c:	3301      	adds	r3, #1
 800159e:	4a0d      	ldr	r2, [pc, #52]	; (80015d4 <USART2_IRQHandler+0x68>)
 80015a0:	6013      	str	r3, [r2, #0]
	}

	/*Quand la transmission est terminée*/
	if(index_transmit >= len){
 80015a2:	4b0c      	ldr	r3, [pc, #48]	; (80015d4 <USART2_IRQHandler+0x68>)
 80015a4:	681a      	ldr	r2, [r3, #0]
 80015a6:	4b0c      	ldr	r3, [pc, #48]	; (80015d8 <USART2_IRQHandler+0x6c>)
 80015a8:	681b      	ldr	r3, [r3, #0]
 80015aa:	429a      	cmp	r2, r3
 80015ac:	db08      	blt.n	80015c0 <USART2_IRQHandler+0x54>
		index_transmit = 0;
 80015ae:	4b09      	ldr	r3, [pc, #36]	; (80015d4 <USART2_IRQHandler+0x68>)
 80015b0:	2200      	movs	r2, #0
 80015b2:	601a      	str	r2, [r3, #0]
		USART2->CR1 &= ~USART_CR1_TXEIE;
 80015b4:	4b05      	ldr	r3, [pc, #20]	; (80015cc <USART2_IRQHandler+0x60>)
 80015b6:	68db      	ldr	r3, [r3, #12]
 80015b8:	4a04      	ldr	r2, [pc, #16]	; (80015cc <USART2_IRQHandler+0x60>)
 80015ba:	f023 0380 	bic.w	r3, r3, #128	; 0x80
 80015be:	60d3      	str	r3, [r2, #12]
	}
}
 80015c0:	bf00      	nop
 80015c2:	46bd      	mov	sp, r7
 80015c4:	f85d 7b04 	ldr.w	r7, [sp], #4
 80015c8:	4770      	bx	lr
 80015ca:	bf00      	nop
 80015cc:	40004400 	.word	0x40004400
 80015d0:	20000310 	.word	0x20000310
 80015d4:	20000314 	.word	0x20000314
 80015d8:	20000318 	.word	0x20000318

080015dc <Reset_Handler>:

    .section  .text.Reset_Handler
  .weak  Reset_Handler
  .type  Reset_Handler, %function
Reset_Handler:  
  ldr   sp, =_estack    		 /* set stack pointer */
 80015dc:	f8df d034 	ldr.w	sp, [pc, #52]	; 8001614 <LoopFillZerobss+0x14>

/* Copy the data segment initializers from flash to SRAM */  
  movs  r1, #0
 80015e0:	2100      	movs	r1, #0
  b  LoopCopyDataInit
 80015e2:	e003      	b.n	80015ec <LoopCopyDataInit>

080015e4 <CopyDataInit>:

CopyDataInit:
  ldr  r3, =_sidata
 80015e4:	4b0c      	ldr	r3, [pc, #48]	; (8001618 <LoopFillZerobss+0x18>)
  ldr  r3, [r3, r1]
 80015e6:	585b      	ldr	r3, [r3, r1]
  str  r3, [r0, r1]
 80015e8:	5043      	str	r3, [r0, r1]
  adds  r1, r1, #4
 80015ea:	3104      	adds	r1, #4

080015ec <LoopCopyDataInit>:
    
LoopCopyDataInit:
  ldr  r0, =_sdata
 80015ec:	480b      	ldr	r0, [pc, #44]	; (800161c <LoopFillZerobss+0x1c>)
  ldr  r3, =_edata
 80015ee:	4b0c      	ldr	r3, [pc, #48]	; (8001620 <LoopFillZerobss+0x20>)
  adds  r2, r0, r1
 80015f0:	1842      	adds	r2, r0, r1
  cmp  r2, r3
 80015f2:	429a      	cmp	r2, r3
  bcc  CopyDataInit
 80015f4:	d3f6      	bcc.n	80015e4 <CopyDataInit>
  ldr  r2, =_sbss
 80015f6:	4a0b      	ldr	r2, [pc, #44]	; (8001624 <LoopFillZerobss+0x24>)
  b  LoopFillZerobss
 80015f8:	e002      	b.n	8001600 <LoopFillZerobss>

080015fa <FillZerobss>:
/* Zero fill the bss segment. */  
FillZerobss:
  movs  r3, #0
 80015fa:	2300      	movs	r3, #0
  str  r3, [r2], #4
 80015fc:	f842 3b04 	str.w	r3, [r2], #4

08001600 <LoopFillZerobss>:
    
LoopFillZerobss:
  ldr  r3, = _ebss
 8001600:	4b09      	ldr	r3, [pc, #36]	; (8001628 <LoopFillZerobss+0x28>)
  cmp  r2, r3
 8001602:	429a      	cmp	r2, r3
  bcc  FillZerobss
 8001604:	d3f9      	bcc.n	80015fa <FillZerobss>

/* Call the clock system intitialization function.*/
  bl  SystemInit   
 8001606:	f7ff fd17 	bl	8001038 <SystemInit>
/* Call static constructors */
    bl __libc_init_array
 800160a:	f000 f817 	bl	800163c <__libc_init_array>
/* Call the application's entry point.*/
  bl  main
 800160e:	f7ff fb1b 	bl	8000c48 <main>
  bx  lr    
 8001612:	4770      	bx	lr
  ldr   sp, =_estack    		 /* set stack pointer */
 8001614:	20018000 	.word	0x20018000
  ldr  r3, =_sidata
 8001618:	080039f0 	.word	0x080039f0
  ldr  r0, =_sdata
 800161c:	20000000 	.word	0x20000000
  ldr  r3, =_edata
 8001620:	200001d4 	.word	0x200001d4
  ldr  r2, =_sbss
 8001624:	200001d4 	.word	0x200001d4
  ldr  r3, = _ebss
 8001628:	20000320 	.word	0x20000320

0800162c <ADC_IRQHandler>:
 * @retval None       
*/
    .section  .text.Default_Handler,"ax",%progbits
Default_Handler:
Infinite_Loop:
  b  Infinite_Loop
 800162c:	e7fe      	b.n	800162c <ADC_IRQHandler>
	...

08001630 <__errno>:
 8001630:	4b01      	ldr	r3, [pc, #4]	; (8001638 <__errno+0x8>)
 8001632:	6818      	ldr	r0, [r3, #0]
 8001634:	4770      	bx	lr
 8001636:	bf00      	nop
 8001638:	20000004 	.word	0x20000004

0800163c <__libc_init_array>:
 800163c:	b570      	push	{r4, r5, r6, lr}
 800163e:	4e0d      	ldr	r6, [pc, #52]	; (8001674 <__libc_init_array+0x38>)
 8001640:	4c0d      	ldr	r4, [pc, #52]	; (8001678 <__libc_init_array+0x3c>)
 8001642:	1ba4      	subs	r4, r4, r6
 8001644:	10a4      	asrs	r4, r4, #2
 8001646:	2500      	movs	r5, #0
 8001648:	42a5      	cmp	r5, r4
 800164a:	d109      	bne.n	8001660 <__libc_init_array+0x24>
 800164c:	4e0b      	ldr	r6, [pc, #44]	; (800167c <__libc_init_array+0x40>)
 800164e:	4c0c      	ldr	r4, [pc, #48]	; (8001680 <__libc_init_array+0x44>)
 8001650:	f002 f872 	bl	8003738 <_init>
 8001654:	1ba4      	subs	r4, r4, r6
 8001656:	10a4      	asrs	r4, r4, #2
 8001658:	2500      	movs	r5, #0
 800165a:	42a5      	cmp	r5, r4
 800165c:	d105      	bne.n	800166a <__libc_init_array+0x2e>
 800165e:	bd70      	pop	{r4, r5, r6, pc}
 8001660:	f856 3025 	ldr.w	r3, [r6, r5, lsl #2]
 8001664:	4798      	blx	r3
 8001666:	3501      	adds	r5, #1
 8001668:	e7ee      	b.n	8001648 <__libc_init_array+0xc>
 800166a:	f856 3025 	ldr.w	r3, [r6, r5, lsl #2]
 800166e:	4798      	blx	r3
 8001670:	3501      	adds	r5, #1
 8001672:	e7f2      	b.n	800165a <__libc_init_array+0x1e>
 8001674:	080039e8 	.word	0x080039e8
 8001678:	080039e8 	.word	0x080039e8
 800167c:	080039e8 	.word	0x080039e8
 8001680:	080039ec 	.word	0x080039ec

08001684 <memset>:
 8001684:	4402      	add	r2, r0
 8001686:	4603      	mov	r3, r0
 8001688:	4293      	cmp	r3, r2
 800168a:	d100      	bne.n	800168e <memset+0xa>
 800168c:	4770      	bx	lr
 800168e:	f803 1b01 	strb.w	r1, [r3], #1
 8001692:	e7f9      	b.n	8001688 <memset+0x4>

08001694 <__cvt>:
 8001694:	e92d 47ff 	stmdb	sp!, {r0, r1, r2, r3, r4, r5, r6, r7, r8, r9, sl, lr}
 8001698:	ec55 4b10 	vmov	r4, r5, d0
 800169c:	9f0d      	ldr	r7, [sp, #52]	; 0x34
 800169e:	f8dd a030 	ldr.w	sl, [sp, #48]	; 0x30
 80016a2:	2d00      	cmp	r5, #0
 80016a4:	460e      	mov	r6, r1
 80016a6:	4691      	mov	r9, r2
 80016a8:	4619      	mov	r1, r3
 80016aa:	bfb8      	it	lt
 80016ac:	4622      	movlt	r2, r4
 80016ae:	462b      	mov	r3, r5
 80016b0:	f027 0720 	bic.w	r7, r7, #32
 80016b4:	bfbb      	ittet	lt
 80016b6:	f105 4300 	addlt.w	r3, r5, #2147483648	; 0x80000000
 80016ba:	461d      	movlt	r5, r3
 80016bc:	2300      	movge	r3, #0
 80016be:	232d      	movlt	r3, #45	; 0x2d
 80016c0:	bfb8      	it	lt
 80016c2:	4614      	movlt	r4, r2
 80016c4:	2f46      	cmp	r7, #70	; 0x46
 80016c6:	700b      	strb	r3, [r1, #0]
 80016c8:	d004      	beq.n	80016d4 <__cvt+0x40>
 80016ca:	2f45      	cmp	r7, #69	; 0x45
 80016cc:	d100      	bne.n	80016d0 <__cvt+0x3c>
 80016ce:	3601      	adds	r6, #1
 80016d0:	2102      	movs	r1, #2
 80016d2:	e000      	b.n	80016d6 <__cvt+0x42>
 80016d4:	2103      	movs	r1, #3
 80016d6:	ab03      	add	r3, sp, #12
 80016d8:	9301      	str	r3, [sp, #4]
 80016da:	ab02      	add	r3, sp, #8
 80016dc:	9300      	str	r3, [sp, #0]
 80016de:	4632      	mov	r2, r6
 80016e0:	4653      	mov	r3, sl
 80016e2:	ec45 4b10 	vmov	d0, r4, r5
 80016e6:	f000 fcf3 	bl	80020d0 <_dtoa_r>
 80016ea:	2f47      	cmp	r7, #71	; 0x47
 80016ec:	4680      	mov	r8, r0
 80016ee:	d102      	bne.n	80016f6 <__cvt+0x62>
 80016f0:	f019 0f01 	tst.w	r9, #1
 80016f4:	d026      	beq.n	8001744 <__cvt+0xb0>
 80016f6:	2f46      	cmp	r7, #70	; 0x46
 80016f8:	eb08 0906 	add.w	r9, r8, r6
 80016fc:	d111      	bne.n	8001722 <__cvt+0x8e>
 80016fe:	f898 3000 	ldrb.w	r3, [r8]
 8001702:	2b30      	cmp	r3, #48	; 0x30
 8001704:	d10a      	bne.n	800171c <__cvt+0x88>
 8001706:	2200      	movs	r2, #0
 8001708:	2300      	movs	r3, #0
 800170a:	4620      	mov	r0, r4
 800170c:	4629      	mov	r1, r5
 800170e:	f7ff f9e3 	bl	8000ad8 <__aeabi_dcmpeq>
 8001712:	b918      	cbnz	r0, 800171c <__cvt+0x88>
 8001714:	f1c6 0601 	rsb	r6, r6, #1
 8001718:	f8ca 6000 	str.w	r6, [sl]
 800171c:	f8da 3000 	ldr.w	r3, [sl]
 8001720:	4499      	add	r9, r3
 8001722:	2200      	movs	r2, #0
 8001724:	2300      	movs	r3, #0
 8001726:	4620      	mov	r0, r4
 8001728:	4629      	mov	r1, r5
 800172a:	f7ff f9d5 	bl	8000ad8 <__aeabi_dcmpeq>
 800172e:	b938      	cbnz	r0, 8001740 <__cvt+0xac>
 8001730:	2230      	movs	r2, #48	; 0x30
 8001732:	9b03      	ldr	r3, [sp, #12]
 8001734:	454b      	cmp	r3, r9
 8001736:	d205      	bcs.n	8001744 <__cvt+0xb0>
 8001738:	1c59      	adds	r1, r3, #1
 800173a:	9103      	str	r1, [sp, #12]
 800173c:	701a      	strb	r2, [r3, #0]
 800173e:	e7f8      	b.n	8001732 <__cvt+0x9e>
 8001740:	f8cd 900c 	str.w	r9, [sp, #12]
 8001744:	9b03      	ldr	r3, [sp, #12]
 8001746:	9a0e      	ldr	r2, [sp, #56]	; 0x38
 8001748:	eba3 0308 	sub.w	r3, r3, r8
 800174c:	4640      	mov	r0, r8
 800174e:	6013      	str	r3, [r2, #0]
 8001750:	b004      	add	sp, #16
 8001752:	e8bd 87f0 	ldmia.w	sp!, {r4, r5, r6, r7, r8, r9, sl, pc}

08001756 <__exponent>:
 8001756:	b5f7      	push	{r0, r1, r2, r4, r5, r6, r7, lr}
 8001758:	2900      	cmp	r1, #0
 800175a:	4604      	mov	r4, r0
 800175c:	bfba      	itte	lt
 800175e:	4249      	neglt	r1, r1
 8001760:	232d      	movlt	r3, #45	; 0x2d
 8001762:	232b      	movge	r3, #43	; 0x2b
 8001764:	2909      	cmp	r1, #9
 8001766:	f804 2b02 	strb.w	r2, [r4], #2
 800176a:	7043      	strb	r3, [r0, #1]
 800176c:	dd20      	ble.n	80017b0 <__exponent+0x5a>
 800176e:	f10d 0307 	add.w	r3, sp, #7
 8001772:	461f      	mov	r7, r3
 8001774:	260a      	movs	r6, #10
 8001776:	fb91 f5f6 	sdiv	r5, r1, r6
 800177a:	fb06 1115 	mls	r1, r6, r5, r1
 800177e:	3130      	adds	r1, #48	; 0x30
 8001780:	2d09      	cmp	r5, #9
 8001782:	f803 1c01 	strb.w	r1, [r3, #-1]
 8001786:	f103 32ff 	add.w	r2, r3, #4294967295
 800178a:	4629      	mov	r1, r5
 800178c:	dc09      	bgt.n	80017a2 <__exponent+0x4c>
 800178e:	3130      	adds	r1, #48	; 0x30
 8001790:	3b02      	subs	r3, #2
 8001792:	f802 1c01 	strb.w	r1, [r2, #-1]
 8001796:	42bb      	cmp	r3, r7
 8001798:	4622      	mov	r2, r4
 800179a:	d304      	bcc.n	80017a6 <__exponent+0x50>
 800179c:	1a10      	subs	r0, r2, r0
 800179e:	b003      	add	sp, #12
 80017a0:	bdf0      	pop	{r4, r5, r6, r7, pc}
 80017a2:	4613      	mov	r3, r2
 80017a4:	e7e7      	b.n	8001776 <__exponent+0x20>
 80017a6:	f813 2b01 	ldrb.w	r2, [r3], #1
 80017aa:	f804 2b01 	strb.w	r2, [r4], #1
 80017ae:	e7f2      	b.n	8001796 <__exponent+0x40>
 80017b0:	2330      	movs	r3, #48	; 0x30
 80017b2:	4419      	add	r1, r3
 80017b4:	7083      	strb	r3, [r0, #2]
 80017b6:	1d02      	adds	r2, r0, #4
 80017b8:	70c1      	strb	r1, [r0, #3]
 80017ba:	e7ef      	b.n	800179c <__exponent+0x46>

080017bc <_printf_float>:
 80017bc:	e92d 4ff0 	stmdb	sp!, {r4, r5, r6, r7, r8, r9, sl, fp, lr}
 80017c0:	b08d      	sub	sp, #52	; 0x34
 80017c2:	460c      	mov	r4, r1
 80017c4:	f8dd 8058 	ldr.w	r8, [sp, #88]	; 0x58
 80017c8:	4616      	mov	r6, r2
 80017ca:	461f      	mov	r7, r3
 80017cc:	4605      	mov	r5, r0
 80017ce:	f001 fa37 	bl	8002c40 <_localeconv_r>
 80017d2:	6803      	ldr	r3, [r0, #0]
 80017d4:	9304      	str	r3, [sp, #16]
 80017d6:	4618      	mov	r0, r3
 80017d8:	f7fe fd02 	bl	80001e0 <strlen>
 80017dc:	2300      	movs	r3, #0
 80017de:	930a      	str	r3, [sp, #40]	; 0x28
 80017e0:	f8d8 3000 	ldr.w	r3, [r8]
 80017e4:	9005      	str	r0, [sp, #20]
 80017e6:	3307      	adds	r3, #7
 80017e8:	f023 0307 	bic.w	r3, r3, #7
 80017ec:	f103 0208 	add.w	r2, r3, #8
 80017f0:	f894 a018 	ldrb.w	sl, [r4, #24]
 80017f4:	f8d4 b000 	ldr.w	fp, [r4]
 80017f8:	f8c8 2000 	str.w	r2, [r8]
 80017fc:	e9d3 2300 	ldrd	r2, r3, [r3]
 8001800:	e9c4 2312 	strd	r2, r3, [r4, #72]	; 0x48
 8001804:	e9d4 8912 	ldrd	r8, r9, [r4, #72]	; 0x48
 8001808:	f029 4300 	bic.w	r3, r9, #2147483648	; 0x80000000
 800180c:	9307      	str	r3, [sp, #28]
 800180e:	f8cd 8018 	str.w	r8, [sp, #24]
 8001812:	f04f 32ff 	mov.w	r2, #4294967295
 8001816:	4ba7      	ldr	r3, [pc, #668]	; (8001ab4 <_printf_float+0x2f8>)
 8001818:	e9dd 0106 	ldrd	r0, r1, [sp, #24]
 800181c:	f7ff f98e 	bl	8000b3c <__aeabi_dcmpun>
 8001820:	bb70      	cbnz	r0, 8001880 <_printf_float+0xc4>
 8001822:	f04f 32ff 	mov.w	r2, #4294967295
 8001826:	4ba3      	ldr	r3, [pc, #652]	; (8001ab4 <_printf_float+0x2f8>)
 8001828:	e9dd 0106 	ldrd	r0, r1, [sp, #24]
 800182c:	f7ff f968 	bl	8000b00 <__aeabi_dcmple>
 8001830:	bb30      	cbnz	r0, 8001880 <_printf_float+0xc4>
 8001832:	2200      	movs	r2, #0
 8001834:	2300      	movs	r3, #0
 8001836:	4640      	mov	r0, r8
 8001838:	4649      	mov	r1, r9
 800183a:	f7ff f957 	bl	8000aec <__aeabi_dcmplt>
 800183e:	b110      	cbz	r0, 8001846 <_printf_float+0x8a>
 8001840:	232d      	movs	r3, #45	; 0x2d
 8001842:	f884 3043 	strb.w	r3, [r4, #67]	; 0x43
 8001846:	4a9c      	ldr	r2, [pc, #624]	; (8001ab8 <_printf_float+0x2fc>)
 8001848:	4b9c      	ldr	r3, [pc, #624]	; (8001abc <_printf_float+0x300>)
 800184a:	f1ba 0f47 	cmp.w	sl, #71	; 0x47
 800184e:	bf8c      	ite	hi
 8001850:	4690      	movhi	r8, r2
 8001852:	4698      	movls	r8, r3
 8001854:	2303      	movs	r3, #3
 8001856:	f02b 0204 	bic.w	r2, fp, #4
 800185a:	6123      	str	r3, [r4, #16]
 800185c:	6022      	str	r2, [r4, #0]
 800185e:	f04f 0900 	mov.w	r9, #0
 8001862:	9700      	str	r7, [sp, #0]
 8001864:	4633      	mov	r3, r6
 8001866:	aa0b      	add	r2, sp, #44	; 0x2c
 8001868:	4621      	mov	r1, r4
 800186a:	4628      	mov	r0, r5
 800186c:	f000 f9e6 	bl	8001c3c <_printf_common>
 8001870:	3001      	adds	r0, #1
 8001872:	f040 808d 	bne.w	8001990 <_printf_float+0x1d4>
 8001876:	f04f 30ff 	mov.w	r0, #4294967295
 800187a:	b00d      	add	sp, #52	; 0x34
 800187c:	e8bd 8ff0 	ldmia.w	sp!, {r4, r5, r6, r7, r8, r9, sl, fp, pc}
 8001880:	4642      	mov	r2, r8
 8001882:	464b      	mov	r3, r9
 8001884:	4640      	mov	r0, r8
 8001886:	4649      	mov	r1, r9
 8001888:	f7ff f958 	bl	8000b3c <__aeabi_dcmpun>
 800188c:	b110      	cbz	r0, 8001894 <_printf_float+0xd8>
 800188e:	4a8c      	ldr	r2, [pc, #560]	; (8001ac0 <_printf_float+0x304>)
 8001890:	4b8c      	ldr	r3, [pc, #560]	; (8001ac4 <_printf_float+0x308>)
 8001892:	e7da      	b.n	800184a <_printf_float+0x8e>
 8001894:	6861      	ldr	r1, [r4, #4]
 8001896:	1c4b      	adds	r3, r1, #1
 8001898:	f44b 6280 	orr.w	r2, fp, #1024	; 0x400
 800189c:	a80a      	add	r0, sp, #40	; 0x28
 800189e:	d13e      	bne.n	800191e <_printf_float+0x162>
 80018a0:	2306      	movs	r3, #6
 80018a2:	6063      	str	r3, [r4, #4]
 80018a4:	2300      	movs	r3, #0
 80018a6:	e9cd 0302 	strd	r0, r3, [sp, #8]
 80018aa:	ab09      	add	r3, sp, #36	; 0x24
 80018ac:	9300      	str	r3, [sp, #0]
 80018ae:	ec49 8b10 	vmov	d0, r8, r9
 80018b2:	f10d 0323 	add.w	r3, sp, #35	; 0x23
 80018b6:	6022      	str	r2, [r4, #0]
 80018b8:	f8cd a004 	str.w	sl, [sp, #4]
 80018bc:	6861      	ldr	r1, [r4, #4]
 80018be:	4628      	mov	r0, r5
 80018c0:	f7ff fee8 	bl	8001694 <__cvt>
 80018c4:	f00a 03df 	and.w	r3, sl, #223	; 0xdf
 80018c8:	2b47      	cmp	r3, #71	; 0x47
 80018ca:	4680      	mov	r8, r0
 80018cc:	d109      	bne.n	80018e2 <_printf_float+0x126>
 80018ce:	9b09      	ldr	r3, [sp, #36]	; 0x24
 80018d0:	1cd8      	adds	r0, r3, #3
 80018d2:	db02      	blt.n	80018da <_printf_float+0x11e>
 80018d4:	6862      	ldr	r2, [r4, #4]
 80018d6:	4293      	cmp	r3, r2
 80018d8:	dd47      	ble.n	800196a <_printf_float+0x1ae>
 80018da:	f1aa 0a02 	sub.w	sl, sl, #2
 80018de:	fa5f fa8a 	uxtb.w	sl, sl
 80018e2:	f1ba 0f65 	cmp.w	sl, #101	; 0x65
 80018e6:	9909      	ldr	r1, [sp, #36]	; 0x24
 80018e8:	d824      	bhi.n	8001934 <_printf_float+0x178>
 80018ea:	3901      	subs	r1, #1
 80018ec:	4652      	mov	r2, sl
 80018ee:	f104 0050 	add.w	r0, r4, #80	; 0x50
 80018f2:	9109      	str	r1, [sp, #36]	; 0x24
 80018f4:	f7ff ff2f 	bl	8001756 <__exponent>
 80018f8:	9a0a      	ldr	r2, [sp, #40]	; 0x28
 80018fa:	1813      	adds	r3, r2, r0
 80018fc:	2a01      	cmp	r2, #1
 80018fe:	4681      	mov	r9, r0
 8001900:	6123      	str	r3, [r4, #16]
 8001902:	dc02      	bgt.n	800190a <_printf_float+0x14e>
 8001904:	6822      	ldr	r2, [r4, #0]
 8001906:	07d1      	lsls	r1, r2, #31
 8001908:	d501      	bpl.n	800190e <_printf_float+0x152>
 800190a:	3301      	adds	r3, #1
 800190c:	6123      	str	r3, [r4, #16]
 800190e:	f89d 3023 	ldrb.w	r3, [sp, #35]	; 0x23
 8001912:	2b00      	cmp	r3, #0
 8001914:	d0a5      	beq.n	8001862 <_printf_float+0xa6>
 8001916:	232d      	movs	r3, #45	; 0x2d
 8001918:	f884 3043 	strb.w	r3, [r4, #67]	; 0x43
 800191c:	e7a1      	b.n	8001862 <_printf_float+0xa6>
 800191e:	f1ba 0f67 	cmp.w	sl, #103	; 0x67
 8001922:	f000 8177 	beq.w	8001c14 <_printf_float+0x458>
 8001926:	f1ba 0f47 	cmp.w	sl, #71	; 0x47
 800192a:	d1bb      	bne.n	80018a4 <_printf_float+0xe8>
 800192c:	2900      	cmp	r1, #0
 800192e:	d1b9      	bne.n	80018a4 <_printf_float+0xe8>
 8001930:	2301      	movs	r3, #1
 8001932:	e7b6      	b.n	80018a2 <_printf_float+0xe6>
 8001934:	f1ba 0f66 	cmp.w	sl, #102	; 0x66
 8001938:	d119      	bne.n	800196e <_printf_float+0x1b2>
 800193a:	2900      	cmp	r1, #0
 800193c:	6863      	ldr	r3, [r4, #4]
 800193e:	dd0c      	ble.n	800195a <_printf_float+0x19e>
 8001940:	6121      	str	r1, [r4, #16]
 8001942:	b913      	cbnz	r3, 800194a <_printf_float+0x18e>
 8001944:	6822      	ldr	r2, [r4, #0]
 8001946:	07d2      	lsls	r2, r2, #31
 8001948:	d502      	bpl.n	8001950 <_printf_float+0x194>
 800194a:	3301      	adds	r3, #1
 800194c:	440b      	add	r3, r1
 800194e:	6123      	str	r3, [r4, #16]
 8001950:	9b09      	ldr	r3, [sp, #36]	; 0x24
 8001952:	65a3      	str	r3, [r4, #88]	; 0x58
 8001954:	f04f 0900 	mov.w	r9, #0
 8001958:	e7d9      	b.n	800190e <_printf_float+0x152>
 800195a:	b913      	cbnz	r3, 8001962 <_printf_float+0x1a6>
 800195c:	6822      	ldr	r2, [r4, #0]
 800195e:	07d0      	lsls	r0, r2, #31
 8001960:	d501      	bpl.n	8001966 <_printf_float+0x1aa>
 8001962:	3302      	adds	r3, #2
 8001964:	e7f3      	b.n	800194e <_printf_float+0x192>
 8001966:	2301      	movs	r3, #1
 8001968:	e7f1      	b.n	800194e <_printf_float+0x192>
 800196a:	f04f 0a67 	mov.w	sl, #103	; 0x67
 800196e:	e9dd 3209 	ldrd	r3, r2, [sp, #36]	; 0x24
 8001972:	4293      	cmp	r3, r2
 8001974:	db05      	blt.n	8001982 <_printf_float+0x1c6>
 8001976:	6822      	ldr	r2, [r4, #0]
 8001978:	6123      	str	r3, [r4, #16]
 800197a:	07d1      	lsls	r1, r2, #31
 800197c:	d5e8      	bpl.n	8001950 <_printf_float+0x194>
 800197e:	3301      	adds	r3, #1
 8001980:	e7e5      	b.n	800194e <_printf_float+0x192>
 8001982:	2b00      	cmp	r3, #0
 8001984:	bfd4      	ite	le
 8001986:	f1c3 0302 	rsble	r3, r3, #2
 800198a:	2301      	movgt	r3, #1
 800198c:	4413      	add	r3, r2
 800198e:	e7de      	b.n	800194e <_printf_float+0x192>
 8001990:	6823      	ldr	r3, [r4, #0]
 8001992:	055a      	lsls	r2, r3, #21
 8001994:	d407      	bmi.n	80019a6 <_printf_float+0x1ea>
 8001996:	6923      	ldr	r3, [r4, #16]
 8001998:	4642      	mov	r2, r8
 800199a:	4631      	mov	r1, r6
 800199c:	4628      	mov	r0, r5
 800199e:	47b8      	blx	r7
 80019a0:	3001      	adds	r0, #1
 80019a2:	d12b      	bne.n	80019fc <_printf_float+0x240>
 80019a4:	e767      	b.n	8001876 <_printf_float+0xba>
 80019a6:	f1ba 0f65 	cmp.w	sl, #101	; 0x65
 80019aa:	f240 80dc 	bls.w	8001b66 <_printf_float+0x3aa>
 80019ae:	2200      	movs	r2, #0
 80019b0:	2300      	movs	r3, #0
 80019b2:	e9d4 0112 	ldrd	r0, r1, [r4, #72]	; 0x48
 80019b6:	f7ff f88f 	bl	8000ad8 <__aeabi_dcmpeq>
 80019ba:	2800      	cmp	r0, #0
 80019bc:	d033      	beq.n	8001a26 <_printf_float+0x26a>
 80019be:	2301      	movs	r3, #1
 80019c0:	4a41      	ldr	r2, [pc, #260]	; (8001ac8 <_printf_float+0x30c>)
 80019c2:	4631      	mov	r1, r6
 80019c4:	4628      	mov	r0, r5
 80019c6:	47b8      	blx	r7
 80019c8:	3001      	adds	r0, #1
 80019ca:	f43f af54 	beq.w	8001876 <_printf_float+0xba>
 80019ce:	e9dd 2309 	ldrd	r2, r3, [sp, #36]	; 0x24
 80019d2:	429a      	cmp	r2, r3
 80019d4:	db02      	blt.n	80019dc <_printf_float+0x220>
 80019d6:	6823      	ldr	r3, [r4, #0]
 80019d8:	07d8      	lsls	r0, r3, #31
 80019da:	d50f      	bpl.n	80019fc <_printf_float+0x240>
 80019dc:	e9dd 2304 	ldrd	r2, r3, [sp, #16]
 80019e0:	4631      	mov	r1, r6
 80019e2:	4628      	mov	r0, r5
 80019e4:	47b8      	blx	r7
 80019e6:	3001      	adds	r0, #1
 80019e8:	f43f af45 	beq.w	8001876 <_printf_float+0xba>
 80019ec:	f04f 0800 	mov.w	r8, #0
 80019f0:	f104 091a 	add.w	r9, r4, #26
 80019f4:	9b0a      	ldr	r3, [sp, #40]	; 0x28
 80019f6:	3b01      	subs	r3, #1
 80019f8:	4543      	cmp	r3, r8
 80019fa:	dc09      	bgt.n	8001a10 <_printf_float+0x254>
 80019fc:	6823      	ldr	r3, [r4, #0]
 80019fe:	079b      	lsls	r3, r3, #30
 8001a00:	f100 8103 	bmi.w	8001c0a <_printf_float+0x44e>
 8001a04:	68e0      	ldr	r0, [r4, #12]
 8001a06:	9b0b      	ldr	r3, [sp, #44]	; 0x2c
 8001a08:	4298      	cmp	r0, r3
 8001a0a:	bfb8      	it	lt
 8001a0c:	4618      	movlt	r0, r3
 8001a0e:	e734      	b.n	800187a <_printf_float+0xbe>
 8001a10:	2301      	movs	r3, #1
 8001a12:	464a      	mov	r2, r9
 8001a14:	4631      	mov	r1, r6
 8001a16:	4628      	mov	r0, r5
 8001a18:	47b8      	blx	r7
 8001a1a:	3001      	adds	r0, #1
 8001a1c:	f43f af2b 	beq.w	8001876 <_printf_float+0xba>
 8001a20:	f108 0801 	add.w	r8, r8, #1
 8001a24:	e7e6      	b.n	80019f4 <_printf_float+0x238>
 8001a26:	9b09      	ldr	r3, [sp, #36]	; 0x24
 8001a28:	2b00      	cmp	r3, #0
 8001a2a:	dc2b      	bgt.n	8001a84 <_printf_float+0x2c8>
 8001a2c:	2301      	movs	r3, #1
 8001a2e:	4a26      	ldr	r2, [pc, #152]	; (8001ac8 <_printf_float+0x30c>)
 8001a30:	4631      	mov	r1, r6
 8001a32:	4628      	mov	r0, r5
 8001a34:	47b8      	blx	r7
 8001a36:	3001      	adds	r0, #1
 8001a38:	f43f af1d 	beq.w	8001876 <_printf_float+0xba>
 8001a3c:	9b09      	ldr	r3, [sp, #36]	; 0x24
 8001a3e:	b923      	cbnz	r3, 8001a4a <_printf_float+0x28e>
 8001a40:	9b0a      	ldr	r3, [sp, #40]	; 0x28
 8001a42:	b913      	cbnz	r3, 8001a4a <_printf_float+0x28e>
 8001a44:	6823      	ldr	r3, [r4, #0]
 8001a46:	07d9      	lsls	r1, r3, #31
 8001a48:	d5d8      	bpl.n	80019fc <_printf_float+0x240>
 8001a4a:	e9dd 2304 	ldrd	r2, r3, [sp, #16]
 8001a4e:	4631      	mov	r1, r6
 8001a50:	4628      	mov	r0, r5
 8001a52:	47b8      	blx	r7
 8001a54:	3001      	adds	r0, #1
 8001a56:	f43f af0e 	beq.w	8001876 <_printf_float+0xba>
 8001a5a:	f04f 0900 	mov.w	r9, #0
 8001a5e:	f104 0a1a 	add.w	sl, r4, #26
 8001a62:	9b09      	ldr	r3, [sp, #36]	; 0x24
 8001a64:	425b      	negs	r3, r3
 8001a66:	454b      	cmp	r3, r9
 8001a68:	dc01      	bgt.n	8001a6e <_printf_float+0x2b2>
 8001a6a:	9b0a      	ldr	r3, [sp, #40]	; 0x28
 8001a6c:	e794      	b.n	8001998 <_printf_float+0x1dc>
 8001a6e:	2301      	movs	r3, #1
 8001a70:	4652      	mov	r2, sl
 8001a72:	4631      	mov	r1, r6
 8001a74:	4628      	mov	r0, r5
 8001a76:	47b8      	blx	r7
 8001a78:	3001      	adds	r0, #1
 8001a7a:	f43f aefc 	beq.w	8001876 <_printf_float+0xba>
 8001a7e:	f109 0901 	add.w	r9, r9, #1
 8001a82:	e7ee      	b.n	8001a62 <_printf_float+0x2a6>
 8001a84:	9a0a      	ldr	r2, [sp, #40]	; 0x28
 8001a86:	6da3      	ldr	r3, [r4, #88]	; 0x58
 8001a88:	429a      	cmp	r2, r3
 8001a8a:	bfa8      	it	ge
 8001a8c:	461a      	movge	r2, r3
 8001a8e:	2a00      	cmp	r2, #0
 8001a90:	4691      	mov	r9, r2
 8001a92:	dd07      	ble.n	8001aa4 <_printf_float+0x2e8>
 8001a94:	4613      	mov	r3, r2
 8001a96:	4631      	mov	r1, r6
 8001a98:	4642      	mov	r2, r8
 8001a9a:	4628      	mov	r0, r5
 8001a9c:	47b8      	blx	r7
 8001a9e:	3001      	adds	r0, #1
 8001aa0:	f43f aee9 	beq.w	8001876 <_printf_float+0xba>
 8001aa4:	f104 031a 	add.w	r3, r4, #26
 8001aa8:	f04f 0b00 	mov.w	fp, #0
 8001aac:	ea29 79e9 	bic.w	r9, r9, r9, asr #31
 8001ab0:	9306      	str	r3, [sp, #24]
 8001ab2:	e015      	b.n	8001ae0 <_printf_float+0x324>
 8001ab4:	7fefffff 	.word	0x7fefffff
 8001ab8:	08003793 	.word	0x08003793
 8001abc:	0800378f 	.word	0x0800378f
 8001ac0:	0800379b 	.word	0x0800379b
 8001ac4:	08003797 	.word	0x08003797
 8001ac8:	0800379f 	.word	0x0800379f
 8001acc:	2301      	movs	r3, #1
 8001ace:	9a06      	ldr	r2, [sp, #24]
 8001ad0:	4631      	mov	r1, r6
 8001ad2:	4628      	mov	r0, r5
 8001ad4:	47b8      	blx	r7
 8001ad6:	3001      	adds	r0, #1
 8001ad8:	f43f aecd 	beq.w	8001876 <_printf_float+0xba>
 8001adc:	f10b 0b01 	add.w	fp, fp, #1
 8001ae0:	f8d4 a058 	ldr.w	sl, [r4, #88]	; 0x58
 8001ae4:	ebaa 0309 	sub.w	r3, sl, r9
 8001ae8:	455b      	cmp	r3, fp
 8001aea:	dcef      	bgt.n	8001acc <_printf_float+0x310>
 8001aec:	e9dd 2309 	ldrd	r2, r3, [sp, #36]	; 0x24
 8001af0:	429a      	cmp	r2, r3
 8001af2:	44d0      	add	r8, sl
 8001af4:	db15      	blt.n	8001b22 <_printf_float+0x366>
 8001af6:	6823      	ldr	r3, [r4, #0]
 8001af8:	07da      	lsls	r2, r3, #31
 8001afa:	d412      	bmi.n	8001b22 <_printf_float+0x366>
 8001afc:	9b0a      	ldr	r3, [sp, #40]	; 0x28
 8001afe:	9909      	ldr	r1, [sp, #36]	; 0x24
 8001b00:	eba3 020a 	sub.w	r2, r3, sl
 8001b04:	eba3 0a01 	sub.w	sl, r3, r1
 8001b08:	4592      	cmp	sl, r2
 8001b0a:	bfa8      	it	ge
 8001b0c:	4692      	movge	sl, r2
 8001b0e:	f1ba 0f00 	cmp.w	sl, #0
 8001b12:	dc0e      	bgt.n	8001b32 <_printf_float+0x376>
 8001b14:	f04f 0800 	mov.w	r8, #0
 8001b18:	ea2a 7aea 	bic.w	sl, sl, sl, asr #31
 8001b1c:	f104 091a 	add.w	r9, r4, #26
 8001b20:	e019      	b.n	8001b56 <_printf_float+0x39a>
 8001b22:	e9dd 2304 	ldrd	r2, r3, [sp, #16]
 8001b26:	4631      	mov	r1, r6
 8001b28:	4628      	mov	r0, r5
 8001b2a:	47b8      	blx	r7
 8001b2c:	3001      	adds	r0, #1
 8001b2e:	d1e5      	bne.n	8001afc <_printf_float+0x340>
 8001b30:	e6a1      	b.n	8001876 <_printf_float+0xba>
 8001b32:	4653      	mov	r3, sl
 8001b34:	4642      	mov	r2, r8
 8001b36:	4631      	mov	r1, r6
 8001b38:	4628      	mov	r0, r5
 8001b3a:	47b8      	blx	r7
 8001b3c:	3001      	adds	r0, #1
 8001b3e:	d1e9      	bne.n	8001b14 <_printf_float+0x358>
 8001b40:	e699      	b.n	8001876 <_printf_float+0xba>
 8001b42:	2301      	movs	r3, #1
 8001b44:	464a      	mov	r2, r9
 8001b46:	4631      	mov	r1, r6
 8001b48:	4628      	mov	r0, r5
 8001b4a:	47b8      	blx	r7
 8001b4c:	3001      	adds	r0, #1
 8001b4e:	f43f ae92 	beq.w	8001876 <_printf_float+0xba>
 8001b52:	f108 0801 	add.w	r8, r8, #1
 8001b56:	e9dd 2309 	ldrd	r2, r3, [sp, #36]	; 0x24
 8001b5a:	1a9b      	subs	r3, r3, r2
 8001b5c:	eba3 030a 	sub.w	r3, r3, sl
 8001b60:	4543      	cmp	r3, r8
 8001b62:	dcee      	bgt.n	8001b42 <_printf_float+0x386>
 8001b64:	e74a      	b.n	80019fc <_printf_float+0x240>
 8001b66:	9a0a      	ldr	r2, [sp, #40]	; 0x28
 8001b68:	2a01      	cmp	r2, #1
 8001b6a:	dc01      	bgt.n	8001b70 <_printf_float+0x3b4>
 8001b6c:	07db      	lsls	r3, r3, #31
 8001b6e:	d53a      	bpl.n	8001be6 <_printf_float+0x42a>
 8001b70:	2301      	movs	r3, #1
 8001b72:	4642      	mov	r2, r8
 8001b74:	4631      	mov	r1, r6
 8001b76:	4628      	mov	r0, r5
 8001b78:	47b8      	blx	r7
 8001b7a:	3001      	adds	r0, #1
 8001b7c:	f43f ae7b 	beq.w	8001876 <_printf_float+0xba>
 8001b80:	e9dd 2304 	ldrd	r2, r3, [sp, #16]
 8001b84:	4631      	mov	r1, r6
 8001b86:	4628      	mov	r0, r5
 8001b88:	47b8      	blx	r7
 8001b8a:	3001      	adds	r0, #1
 8001b8c:	f108 0801 	add.w	r8, r8, #1
 8001b90:	f43f ae71 	beq.w	8001876 <_printf_float+0xba>
 8001b94:	9b0a      	ldr	r3, [sp, #40]	; 0x28
 8001b96:	2200      	movs	r2, #0
 8001b98:	f103 3aff 	add.w	sl, r3, #4294967295
 8001b9c:	e9d4 0112 	ldrd	r0, r1, [r4, #72]	; 0x48
 8001ba0:	2300      	movs	r3, #0
 8001ba2:	f7fe ff99 	bl	8000ad8 <__aeabi_dcmpeq>
 8001ba6:	b9c8      	cbnz	r0, 8001bdc <_printf_float+0x420>
 8001ba8:	4653      	mov	r3, sl
 8001baa:	4642      	mov	r2, r8
 8001bac:	4631      	mov	r1, r6
 8001bae:	4628      	mov	r0, r5
 8001bb0:	47b8      	blx	r7
 8001bb2:	3001      	adds	r0, #1
 8001bb4:	d10e      	bne.n	8001bd4 <_printf_float+0x418>
 8001bb6:	e65e      	b.n	8001876 <_printf_float+0xba>
 8001bb8:	2301      	movs	r3, #1
 8001bba:	4652      	mov	r2, sl
 8001bbc:	4631      	mov	r1, r6
 8001bbe:	4628      	mov	r0, r5
 8001bc0:	47b8      	blx	r7
 8001bc2:	3001      	adds	r0, #1
 8001bc4:	f43f ae57 	beq.w	8001876 <_printf_float+0xba>
 8001bc8:	f108 0801 	add.w	r8, r8, #1
 8001bcc:	9b0a      	ldr	r3, [sp, #40]	; 0x28
 8001bce:	3b01      	subs	r3, #1
 8001bd0:	4543      	cmp	r3, r8
 8001bd2:	dcf1      	bgt.n	8001bb8 <_printf_float+0x3fc>
 8001bd4:	464b      	mov	r3, r9
 8001bd6:	f104 0250 	add.w	r2, r4, #80	; 0x50
 8001bda:	e6de      	b.n	800199a <_printf_float+0x1de>
 8001bdc:	f04f 0800 	mov.w	r8, #0
 8001be0:	f104 0a1a 	add.w	sl, r4, #26
 8001be4:	e7f2      	b.n	8001bcc <_printf_float+0x410>
 8001be6:	2301      	movs	r3, #1
 8001be8:	e7df      	b.n	8001baa <_printf_float+0x3ee>
 8001bea:	2301      	movs	r3, #1
 8001bec:	464a      	mov	r2, r9
 8001bee:	4631      	mov	r1, r6
 8001bf0:	4628      	mov	r0, r5
 8001bf2:	47b8      	blx	r7
 8001bf4:	3001      	adds	r0, #1
 8001bf6:	f43f ae3e 	beq.w	8001876 <_printf_float+0xba>
 8001bfa:	f108 0801 	add.w	r8, r8, #1
 8001bfe:	68e3      	ldr	r3, [r4, #12]
 8001c00:	9a0b      	ldr	r2, [sp, #44]	; 0x2c
 8001c02:	1a9b      	subs	r3, r3, r2
 8001c04:	4543      	cmp	r3, r8
 8001c06:	dcf0      	bgt.n	8001bea <_printf_float+0x42e>
 8001c08:	e6fc      	b.n	8001a04 <_printf_float+0x248>
 8001c0a:	f04f 0800 	mov.w	r8, #0
 8001c0e:	f104 0919 	add.w	r9, r4, #25
 8001c12:	e7f4      	b.n	8001bfe <_printf_float+0x442>
 8001c14:	2900      	cmp	r1, #0
 8001c16:	f43f ae8b 	beq.w	8001930 <_printf_float+0x174>
 8001c1a:	2300      	movs	r3, #0
 8001c1c:	e9cd 0302 	strd	r0, r3, [sp, #8]
 8001c20:	ab09      	add	r3, sp, #36	; 0x24
 8001c22:	9300      	str	r3, [sp, #0]
 8001c24:	ec49 8b10 	vmov	d0, r8, r9
 8001c28:	6022      	str	r2, [r4, #0]
 8001c2a:	f8cd a004 	str.w	sl, [sp, #4]
 8001c2e:	f10d 0323 	add.w	r3, sp, #35	; 0x23
 8001c32:	4628      	mov	r0, r5
 8001c34:	f7ff fd2e 	bl	8001694 <__cvt>
 8001c38:	4680      	mov	r8, r0
 8001c3a:	e648      	b.n	80018ce <_printf_float+0x112>

08001c3c <_printf_common>:
 8001c3c:	e92d 47f0 	stmdb	sp!, {r4, r5, r6, r7, r8, r9, sl, lr}
 8001c40:	4691      	mov	r9, r2
 8001c42:	461f      	mov	r7, r3
 8001c44:	688a      	ldr	r2, [r1, #8]
 8001c46:	690b      	ldr	r3, [r1, #16]
 8001c48:	f8dd 8020 	ldr.w	r8, [sp, #32]
 8001c4c:	4293      	cmp	r3, r2
 8001c4e:	bfb8      	it	lt
 8001c50:	4613      	movlt	r3, r2
 8001c52:	f8c9 3000 	str.w	r3, [r9]
 8001c56:	f891 2043 	ldrb.w	r2, [r1, #67]	; 0x43
 8001c5a:	4606      	mov	r6, r0
 8001c5c:	460c      	mov	r4, r1
 8001c5e:	b112      	cbz	r2, 8001c66 <_printf_common+0x2a>
 8001c60:	3301      	adds	r3, #1
 8001c62:	f8c9 3000 	str.w	r3, [r9]
 8001c66:	6823      	ldr	r3, [r4, #0]
 8001c68:	0699      	lsls	r1, r3, #26
 8001c6a:	bf42      	ittt	mi
 8001c6c:	f8d9 3000 	ldrmi.w	r3, [r9]
 8001c70:	3302      	addmi	r3, #2
 8001c72:	f8c9 3000 	strmi.w	r3, [r9]
 8001c76:	6825      	ldr	r5, [r4, #0]
 8001c78:	f015 0506 	ands.w	r5, r5, #6
 8001c7c:	d107      	bne.n	8001c8e <_printf_common+0x52>
 8001c7e:	f104 0a19 	add.w	sl, r4, #25
 8001c82:	68e3      	ldr	r3, [r4, #12]
 8001c84:	f8d9 2000 	ldr.w	r2, [r9]
 8001c88:	1a9b      	subs	r3, r3, r2
 8001c8a:	42ab      	cmp	r3, r5
 8001c8c:	dc28      	bgt.n	8001ce0 <_printf_common+0xa4>
 8001c8e:	f894 3043 	ldrb.w	r3, [r4, #67]	; 0x43
 8001c92:	6822      	ldr	r2, [r4, #0]
 8001c94:	3300      	adds	r3, #0
 8001c96:	bf18      	it	ne
 8001c98:	2301      	movne	r3, #1
 8001c9a:	0692      	lsls	r2, r2, #26
 8001c9c:	d42d      	bmi.n	8001cfa <_printf_common+0xbe>
 8001c9e:	f104 0243 	add.w	r2, r4, #67	; 0x43
 8001ca2:	4639      	mov	r1, r7
 8001ca4:	4630      	mov	r0, r6
 8001ca6:	47c0      	blx	r8
 8001ca8:	3001      	adds	r0, #1
 8001caa:	d020      	beq.n	8001cee <_printf_common+0xb2>
 8001cac:	6823      	ldr	r3, [r4, #0]
 8001cae:	68e5      	ldr	r5, [r4, #12]
 8001cb0:	f8d9 2000 	ldr.w	r2, [r9]
 8001cb4:	f003 0306 	and.w	r3, r3, #6
 8001cb8:	2b04      	cmp	r3, #4
 8001cba:	bf08      	it	eq
 8001cbc:	1aad      	subeq	r5, r5, r2
 8001cbe:	68a3      	ldr	r3, [r4, #8]
 8001cc0:	6922      	ldr	r2, [r4, #16]
 8001cc2:	bf0c      	ite	eq
 8001cc4:	ea25 75e5 	biceq.w	r5, r5, r5, asr #31
 8001cc8:	2500      	movne	r5, #0
 8001cca:	4293      	cmp	r3, r2
 8001ccc:	bfc4      	itt	gt
 8001cce:	1a9b      	subgt	r3, r3, r2
 8001cd0:	18ed      	addgt	r5, r5, r3
 8001cd2:	f04f 0900 	mov.w	r9, #0
 8001cd6:	341a      	adds	r4, #26
 8001cd8:	454d      	cmp	r5, r9
 8001cda:	d11a      	bne.n	8001d12 <_printf_common+0xd6>
 8001cdc:	2000      	movs	r0, #0
 8001cde:	e008      	b.n	8001cf2 <_printf_common+0xb6>
 8001ce0:	2301      	movs	r3, #1
 8001ce2:	4652      	mov	r2, sl
 8001ce4:	4639      	mov	r1, r7
 8001ce6:	4630      	mov	r0, r6
 8001ce8:	47c0      	blx	r8
 8001cea:	3001      	adds	r0, #1
 8001cec:	d103      	bne.n	8001cf6 <_printf_common+0xba>
 8001cee:	f04f 30ff 	mov.w	r0, #4294967295
 8001cf2:	e8bd 87f0 	ldmia.w	sp!, {r4, r5, r6, r7, r8, r9, sl, pc}
 8001cf6:	3501      	adds	r5, #1
 8001cf8:	e7c3      	b.n	8001c82 <_printf_common+0x46>
 8001cfa:	18e1      	adds	r1, r4, r3
 8001cfc:	1c5a      	adds	r2, r3, #1
 8001cfe:	2030      	movs	r0, #48	; 0x30
 8001d00:	f881 0043 	strb.w	r0, [r1, #67]	; 0x43
 8001d04:	4422      	add	r2, r4
 8001d06:	f894 1045 	ldrb.w	r1, [r4, #69]	; 0x45
 8001d0a:	f882 1043 	strb.w	r1, [r2, #67]	; 0x43
 8001d0e:	3302      	adds	r3, #2
 8001d10:	e7c5      	b.n	8001c9e <_printf_common+0x62>
 8001d12:	2301      	movs	r3, #1
 8001d14:	4622      	mov	r2, r4
 8001d16:	4639      	mov	r1, r7
 8001d18:	4630      	mov	r0, r6
 8001d1a:	47c0      	blx	r8
 8001d1c:	3001      	adds	r0, #1
 8001d1e:	d0e6      	beq.n	8001cee <_printf_common+0xb2>
 8001d20:	f109 0901 	add.w	r9, r9, #1
 8001d24:	e7d8      	b.n	8001cd8 <_printf_common+0x9c>
	...

08001d28 <_printf_i>:
 8001d28:	e92d 43f0 	stmdb	sp!, {r4, r5, r6, r7, r8, r9, lr}
 8001d2c:	f101 0c43 	add.w	ip, r1, #67	; 0x43
 8001d30:	460c      	mov	r4, r1
 8001d32:	7e09      	ldrb	r1, [r1, #24]
 8001d34:	b085      	sub	sp, #20
 8001d36:	296e      	cmp	r1, #110	; 0x6e
 8001d38:	4617      	mov	r7, r2
 8001d3a:	4606      	mov	r6, r0
 8001d3c:	4698      	mov	r8, r3
 8001d3e:	9a0c      	ldr	r2, [sp, #48]	; 0x30
 8001d40:	f000 80b3 	beq.w	8001eaa <_printf_i+0x182>
 8001d44:	d822      	bhi.n	8001d8c <_printf_i+0x64>
 8001d46:	2963      	cmp	r1, #99	; 0x63
 8001d48:	d036      	beq.n	8001db8 <_printf_i+0x90>
 8001d4a:	d80a      	bhi.n	8001d62 <_printf_i+0x3a>
 8001d4c:	2900      	cmp	r1, #0
 8001d4e:	f000 80b9 	beq.w	8001ec4 <_printf_i+0x19c>
 8001d52:	2958      	cmp	r1, #88	; 0x58
 8001d54:	f000 8083 	beq.w	8001e5e <_printf_i+0x136>
 8001d58:	f104 0542 	add.w	r5, r4, #66	; 0x42
 8001d5c:	f884 1042 	strb.w	r1, [r4, #66]	; 0x42
 8001d60:	e032      	b.n	8001dc8 <_printf_i+0xa0>
 8001d62:	2964      	cmp	r1, #100	; 0x64
 8001d64:	d001      	beq.n	8001d6a <_printf_i+0x42>
 8001d66:	2969      	cmp	r1, #105	; 0x69
 8001d68:	d1f6      	bne.n	8001d58 <_printf_i+0x30>
 8001d6a:	6820      	ldr	r0, [r4, #0]
 8001d6c:	6813      	ldr	r3, [r2, #0]
 8001d6e:	0605      	lsls	r5, r0, #24
 8001d70:	f103 0104 	add.w	r1, r3, #4
 8001d74:	d52a      	bpl.n	8001dcc <_printf_i+0xa4>
 8001d76:	681b      	ldr	r3, [r3, #0]
 8001d78:	6011      	str	r1, [r2, #0]
 8001d7a:	2b00      	cmp	r3, #0
 8001d7c:	da03      	bge.n	8001d86 <_printf_i+0x5e>
 8001d7e:	222d      	movs	r2, #45	; 0x2d
 8001d80:	425b      	negs	r3, r3
 8001d82:	f884 2043 	strb.w	r2, [r4, #67]	; 0x43
 8001d86:	486f      	ldr	r0, [pc, #444]	; (8001f44 <_printf_i+0x21c>)
 8001d88:	220a      	movs	r2, #10
 8001d8a:	e039      	b.n	8001e00 <_printf_i+0xd8>
 8001d8c:	2973      	cmp	r1, #115	; 0x73
 8001d8e:	f000 809d 	beq.w	8001ecc <_printf_i+0x1a4>
 8001d92:	d808      	bhi.n	8001da6 <_printf_i+0x7e>
 8001d94:	296f      	cmp	r1, #111	; 0x6f
 8001d96:	d020      	beq.n	8001dda <_printf_i+0xb2>
 8001d98:	2970      	cmp	r1, #112	; 0x70
 8001d9a:	d1dd      	bne.n	8001d58 <_printf_i+0x30>
 8001d9c:	6823      	ldr	r3, [r4, #0]
 8001d9e:	f043 0320 	orr.w	r3, r3, #32
 8001da2:	6023      	str	r3, [r4, #0]
 8001da4:	e003      	b.n	8001dae <_printf_i+0x86>
 8001da6:	2975      	cmp	r1, #117	; 0x75
 8001da8:	d017      	beq.n	8001dda <_printf_i+0xb2>
 8001daa:	2978      	cmp	r1, #120	; 0x78
 8001dac:	d1d4      	bne.n	8001d58 <_printf_i+0x30>
 8001dae:	2378      	movs	r3, #120	; 0x78
 8001db0:	f884 3045 	strb.w	r3, [r4, #69]	; 0x45
 8001db4:	4864      	ldr	r0, [pc, #400]	; (8001f48 <_printf_i+0x220>)
 8001db6:	e055      	b.n	8001e64 <_printf_i+0x13c>
 8001db8:	6813      	ldr	r3, [r2, #0]
 8001dba:	1d19      	adds	r1, r3, #4
 8001dbc:	681b      	ldr	r3, [r3, #0]
 8001dbe:	6011      	str	r1, [r2, #0]
 8001dc0:	f104 0542 	add.w	r5, r4, #66	; 0x42
 8001dc4:	f884 3042 	strb.w	r3, [r4, #66]	; 0x42
 8001dc8:	2301      	movs	r3, #1
 8001dca:	e08c      	b.n	8001ee6 <_printf_i+0x1be>
 8001dcc:	681b      	ldr	r3, [r3, #0]
 8001dce:	6011      	str	r1, [r2, #0]
 8001dd0:	f010 0f40 	tst.w	r0, #64	; 0x40
 8001dd4:	bf18      	it	ne
 8001dd6:	b21b      	sxthne	r3, r3
 8001dd8:	e7cf      	b.n	8001d7a <_printf_i+0x52>
 8001dda:	6813      	ldr	r3, [r2, #0]
 8001ddc:	6825      	ldr	r5, [r4, #0]
 8001dde:	1d18      	adds	r0, r3, #4
 8001de0:	6010      	str	r0, [r2, #0]
 8001de2:	0628      	lsls	r0, r5, #24
 8001de4:	d501      	bpl.n	8001dea <_printf_i+0xc2>
 8001de6:	681b      	ldr	r3, [r3, #0]
 8001de8:	e002      	b.n	8001df0 <_printf_i+0xc8>
 8001dea:	0668      	lsls	r0, r5, #25
 8001dec:	d5fb      	bpl.n	8001de6 <_printf_i+0xbe>
 8001dee:	881b      	ldrh	r3, [r3, #0]
 8001df0:	4854      	ldr	r0, [pc, #336]	; (8001f44 <_printf_i+0x21c>)
 8001df2:	296f      	cmp	r1, #111	; 0x6f
 8001df4:	bf14      	ite	ne
 8001df6:	220a      	movne	r2, #10
 8001df8:	2208      	moveq	r2, #8
 8001dfa:	2100      	movs	r1, #0
 8001dfc:	f884 1043 	strb.w	r1, [r4, #67]	; 0x43
 8001e00:	6865      	ldr	r5, [r4, #4]
 8001e02:	60a5      	str	r5, [r4, #8]
 8001e04:	2d00      	cmp	r5, #0
 8001e06:	f2c0 8095 	blt.w	8001f34 <_printf_i+0x20c>
 8001e0a:	6821      	ldr	r1, [r4, #0]
 8001e0c:	f021 0104 	bic.w	r1, r1, #4
 8001e10:	6021      	str	r1, [r4, #0]
 8001e12:	2b00      	cmp	r3, #0
 8001e14:	d13d      	bne.n	8001e92 <_printf_i+0x16a>
 8001e16:	2d00      	cmp	r5, #0
 8001e18:	f040 808e 	bne.w	8001f38 <_printf_i+0x210>
 8001e1c:	4665      	mov	r5, ip
 8001e1e:	2a08      	cmp	r2, #8
 8001e20:	d10b      	bne.n	8001e3a <_printf_i+0x112>
 8001e22:	6823      	ldr	r3, [r4, #0]
 8001e24:	07db      	lsls	r3, r3, #31
 8001e26:	d508      	bpl.n	8001e3a <_printf_i+0x112>
 8001e28:	6923      	ldr	r3, [r4, #16]
 8001e2a:	6862      	ldr	r2, [r4, #4]
 8001e2c:	429a      	cmp	r2, r3
 8001e2e:	bfde      	ittt	le
 8001e30:	2330      	movle	r3, #48	; 0x30
 8001e32:	f805 3c01 	strble.w	r3, [r5, #-1]
 8001e36:	f105 35ff 	addle.w	r5, r5, #4294967295
 8001e3a:	ebac 0305 	sub.w	r3, ip, r5
 8001e3e:	6123      	str	r3, [r4, #16]
 8001e40:	f8cd 8000 	str.w	r8, [sp]
 8001e44:	463b      	mov	r3, r7
 8001e46:	aa03      	add	r2, sp, #12
 8001e48:	4621      	mov	r1, r4
 8001e4a:	4630      	mov	r0, r6
 8001e4c:	f7ff fef6 	bl	8001c3c <_printf_common>
 8001e50:	3001      	adds	r0, #1
 8001e52:	d14d      	bne.n	8001ef0 <_printf_i+0x1c8>
 8001e54:	f04f 30ff 	mov.w	r0, #4294967295
 8001e58:	b005      	add	sp, #20
 8001e5a:	e8bd 83f0 	ldmia.w	sp!, {r4, r5, r6, r7, r8, r9, pc}
 8001e5e:	4839      	ldr	r0, [pc, #228]	; (8001f44 <_printf_i+0x21c>)
 8001e60:	f884 1045 	strb.w	r1, [r4, #69]	; 0x45
 8001e64:	6813      	ldr	r3, [r2, #0]
 8001e66:	6821      	ldr	r1, [r4, #0]
 8001e68:	1d1d      	adds	r5, r3, #4
 8001e6a:	681b      	ldr	r3, [r3, #0]
 8001e6c:	6015      	str	r5, [r2, #0]
 8001e6e:	060a      	lsls	r2, r1, #24
 8001e70:	d50b      	bpl.n	8001e8a <_printf_i+0x162>
 8001e72:	07ca      	lsls	r2, r1, #31
 8001e74:	bf44      	itt	mi
 8001e76:	f041 0120 	orrmi.w	r1, r1, #32
 8001e7a:	6021      	strmi	r1, [r4, #0]
 8001e7c:	b91b      	cbnz	r3, 8001e86 <_printf_i+0x15e>
 8001e7e:	6822      	ldr	r2, [r4, #0]
 8001e80:	f022 0220 	bic.w	r2, r2, #32
 8001e84:	6022      	str	r2, [r4, #0]
 8001e86:	2210      	movs	r2, #16
 8001e88:	e7b7      	b.n	8001dfa <_printf_i+0xd2>
 8001e8a:	064d      	lsls	r5, r1, #25
 8001e8c:	bf48      	it	mi
 8001e8e:	b29b      	uxthmi	r3, r3
 8001e90:	e7ef      	b.n	8001e72 <_printf_i+0x14a>
 8001e92:	4665      	mov	r5, ip
 8001e94:	fbb3 f1f2 	udiv	r1, r3, r2
 8001e98:	fb02 3311 	mls	r3, r2, r1, r3
 8001e9c:	5cc3      	ldrb	r3, [r0, r3]
 8001e9e:	f805 3d01 	strb.w	r3, [r5, #-1]!
 8001ea2:	460b      	mov	r3, r1
 8001ea4:	2900      	cmp	r1, #0
 8001ea6:	d1f5      	bne.n	8001e94 <_printf_i+0x16c>
 8001ea8:	e7b9      	b.n	8001e1e <_printf_i+0xf6>
 8001eaa:	6813      	ldr	r3, [r2, #0]
 8001eac:	6825      	ldr	r5, [r4, #0]
 8001eae:	6961      	ldr	r1, [r4, #20]
 8001eb0:	1d18      	adds	r0, r3, #4
 8001eb2:	6010      	str	r0, [r2, #0]
 8001eb4:	0628      	lsls	r0, r5, #24
 8001eb6:	681b      	ldr	r3, [r3, #0]
 8001eb8:	d501      	bpl.n	8001ebe <_printf_i+0x196>
 8001eba:	6019      	str	r1, [r3, #0]
 8001ebc:	e002      	b.n	8001ec4 <_printf_i+0x19c>
 8001ebe:	066a      	lsls	r2, r5, #25
 8001ec0:	d5fb      	bpl.n	8001eba <_printf_i+0x192>
 8001ec2:	8019      	strh	r1, [r3, #0]
 8001ec4:	2300      	movs	r3, #0
 8001ec6:	6123      	str	r3, [r4, #16]
 8001ec8:	4665      	mov	r5, ip
 8001eca:	e7b9      	b.n	8001e40 <_printf_i+0x118>
 8001ecc:	6813      	ldr	r3, [r2, #0]
 8001ece:	1d19      	adds	r1, r3, #4
 8001ed0:	6011      	str	r1, [r2, #0]
 8001ed2:	681d      	ldr	r5, [r3, #0]
 8001ed4:	6862      	ldr	r2, [r4, #4]
 8001ed6:	2100      	movs	r1, #0
 8001ed8:	4628      	mov	r0, r5
 8001eda:	f7fe f989 	bl	80001f0 <memchr>
 8001ede:	b108      	cbz	r0, 8001ee4 <_printf_i+0x1bc>
 8001ee0:	1b40      	subs	r0, r0, r5
 8001ee2:	6060      	str	r0, [r4, #4]
 8001ee4:	6863      	ldr	r3, [r4, #4]
 8001ee6:	6123      	str	r3, [r4, #16]
 8001ee8:	2300      	movs	r3, #0
 8001eea:	f884 3043 	strb.w	r3, [r4, #67]	; 0x43
 8001eee:	e7a7      	b.n	8001e40 <_printf_i+0x118>
 8001ef0:	6923      	ldr	r3, [r4, #16]
 8001ef2:	462a      	mov	r2, r5
 8001ef4:	4639      	mov	r1, r7
 8001ef6:	4630      	mov	r0, r6
 8001ef8:	47c0      	blx	r8
 8001efa:	3001      	adds	r0, #1
 8001efc:	d0aa      	beq.n	8001e54 <_printf_i+0x12c>
 8001efe:	6823      	ldr	r3, [r4, #0]
 8001f00:	079b      	lsls	r3, r3, #30
 8001f02:	d413      	bmi.n	8001f2c <_printf_i+0x204>
 8001f04:	68e0      	ldr	r0, [r4, #12]
 8001f06:	9b03      	ldr	r3, [sp, #12]
 8001f08:	4298      	cmp	r0, r3
 8001f0a:	bfb8      	it	lt
 8001f0c:	4618      	movlt	r0, r3
 8001f0e:	e7a3      	b.n	8001e58 <_printf_i+0x130>
 8001f10:	2301      	movs	r3, #1
 8001f12:	464a      	mov	r2, r9
 8001f14:	4639      	mov	r1, r7
 8001f16:	4630      	mov	r0, r6
 8001f18:	47c0      	blx	r8
 8001f1a:	3001      	adds	r0, #1
 8001f1c:	d09a      	beq.n	8001e54 <_printf_i+0x12c>
 8001f1e:	3501      	adds	r5, #1
 8001f20:	68e3      	ldr	r3, [r4, #12]
 8001f22:	9a03      	ldr	r2, [sp, #12]
 8001f24:	1a9b      	subs	r3, r3, r2
 8001f26:	42ab      	cmp	r3, r5
 8001f28:	dcf2      	bgt.n	8001f10 <_printf_i+0x1e8>
 8001f2a:	e7eb      	b.n	8001f04 <_printf_i+0x1dc>
 8001f2c:	2500      	movs	r5, #0
 8001f2e:	f104 0919 	add.w	r9, r4, #25
 8001f32:	e7f5      	b.n	8001f20 <_printf_i+0x1f8>
 8001f34:	2b00      	cmp	r3, #0
 8001f36:	d1ac      	bne.n	8001e92 <_printf_i+0x16a>
 8001f38:	7803      	ldrb	r3, [r0, #0]
 8001f3a:	f884 3042 	strb.w	r3, [r4, #66]	; 0x42
 8001f3e:	f104 0542 	add.w	r5, r4, #66	; 0x42
 8001f42:	e76c      	b.n	8001e1e <_printf_i+0xf6>
 8001f44:	080037a1 	.word	0x080037a1
 8001f48:	080037b2 	.word	0x080037b2

08001f4c <sniprintf>:
 8001f4c:	b40c      	push	{r2, r3}
 8001f4e:	b530      	push	{r4, r5, lr}
 8001f50:	4b17      	ldr	r3, [pc, #92]	; (8001fb0 <sniprintf+0x64>)
 8001f52:	1e0c      	subs	r4, r1, #0
 8001f54:	b09d      	sub	sp, #116	; 0x74
 8001f56:	681d      	ldr	r5, [r3, #0]
 8001f58:	da08      	bge.n	8001f6c <sniprintf+0x20>
 8001f5a:	238b      	movs	r3, #139	; 0x8b
 8001f5c:	602b      	str	r3, [r5, #0]
 8001f5e:	f04f 30ff 	mov.w	r0, #4294967295
 8001f62:	b01d      	add	sp, #116	; 0x74
 8001f64:	e8bd 4030 	ldmia.w	sp!, {r4, r5, lr}
 8001f68:	b002      	add	sp, #8
 8001f6a:	4770      	bx	lr
 8001f6c:	f44f 7302 	mov.w	r3, #520	; 0x208
 8001f70:	f8ad 3014 	strh.w	r3, [sp, #20]
 8001f74:	bf14      	ite	ne
 8001f76:	f104 33ff 	addne.w	r3, r4, #4294967295
 8001f7a:	4623      	moveq	r3, r4
 8001f7c:	9304      	str	r3, [sp, #16]
 8001f7e:	9307      	str	r3, [sp, #28]
 8001f80:	f64f 73ff 	movw	r3, #65535	; 0xffff
 8001f84:	9002      	str	r0, [sp, #8]
 8001f86:	9006      	str	r0, [sp, #24]
 8001f88:	f8ad 3016 	strh.w	r3, [sp, #22]
 8001f8c:	9a20      	ldr	r2, [sp, #128]	; 0x80
 8001f8e:	ab21      	add	r3, sp, #132	; 0x84
 8001f90:	a902      	add	r1, sp, #8
 8001f92:	4628      	mov	r0, r5
 8001f94:	9301      	str	r3, [sp, #4]
 8001f96:	f001 fa5f 	bl	8003458 <_svfiprintf_r>
 8001f9a:	1c43      	adds	r3, r0, #1
 8001f9c:	bfbc      	itt	lt
 8001f9e:	238b      	movlt	r3, #139	; 0x8b
 8001fa0:	602b      	strlt	r3, [r5, #0]
 8001fa2:	2c00      	cmp	r4, #0
 8001fa4:	d0dd      	beq.n	8001f62 <sniprintf+0x16>
 8001fa6:	9b02      	ldr	r3, [sp, #8]
 8001fa8:	2200      	movs	r2, #0
 8001faa:	701a      	strb	r2, [r3, #0]
 8001fac:	e7d9      	b.n	8001f62 <sniprintf+0x16>
 8001fae:	bf00      	nop
 8001fb0:	20000004 	.word	0x20000004

08001fb4 <quorem>:
 8001fb4:	e92d 4ff7 	stmdb	sp!, {r0, r1, r2, r4, r5, r6, r7, r8, r9, sl, fp, lr}
 8001fb8:	6903      	ldr	r3, [r0, #16]
 8001fba:	690c      	ldr	r4, [r1, #16]
 8001fbc:	42a3      	cmp	r3, r4
 8001fbe:	4680      	mov	r8, r0
 8001fc0:	f2c0 8082 	blt.w	80020c8 <quorem+0x114>
 8001fc4:	3c01      	subs	r4, #1
 8001fc6:	f101 0714 	add.w	r7, r1, #20
 8001fca:	ea4f 0c84 	mov.w	ip, r4, lsl #2
 8001fce:	f100 0614 	add.w	r6, r0, #20
 8001fd2:	f857 5024 	ldr.w	r5, [r7, r4, lsl #2]
 8001fd6:	f856 0024 	ldr.w	r0, [r6, r4, lsl #2]
 8001fda:	eb06 030c 	add.w	r3, r6, ip
 8001fde:	3501      	adds	r5, #1
 8001fe0:	eb07 090c 	add.w	r9, r7, ip
 8001fe4:	9301      	str	r3, [sp, #4]
 8001fe6:	fbb0 f5f5 	udiv	r5, r0, r5
 8001fea:	b395      	cbz	r5, 8002052 <quorem+0x9e>
 8001fec:	f04f 0a00 	mov.w	sl, #0
 8001ff0:	4638      	mov	r0, r7
 8001ff2:	46b6      	mov	lr, r6
 8001ff4:	46d3      	mov	fp, sl
 8001ff6:	f850 2b04 	ldr.w	r2, [r0], #4
 8001ffa:	b293      	uxth	r3, r2
 8001ffc:	fb05 a303 	mla	r3, r5, r3, sl
 8002000:	ea4f 4a13 	mov.w	sl, r3, lsr #16
 8002004:	b29b      	uxth	r3, r3
 8002006:	ebab 0303 	sub.w	r3, fp, r3
 800200a:	0c12      	lsrs	r2, r2, #16
 800200c:	f8de b000 	ldr.w	fp, [lr]
 8002010:	fb05 a202 	mla	r2, r5, r2, sl
 8002014:	fa13 f38b 	uxtah	r3, r3, fp
 8002018:	ea4f 4a12 	mov.w	sl, r2, lsr #16
 800201c:	fa1f fb82 	uxth.w	fp, r2
 8002020:	f8de 2000 	ldr.w	r2, [lr]
 8002024:	ebcb 4212 	rsb	r2, fp, r2, lsr #16
 8002028:	eb02 4223 	add.w	r2, r2, r3, asr #16
 800202c:	b29b      	uxth	r3, r3
 800202e:	ea43 4302 	orr.w	r3, r3, r2, lsl #16
 8002032:	4581      	cmp	r9, r0
 8002034:	ea4f 4b22 	mov.w	fp, r2, asr #16
 8002038:	f84e 3b04 	str.w	r3, [lr], #4
 800203c:	d2db      	bcs.n	8001ff6 <quorem+0x42>
 800203e:	f856 300c 	ldr.w	r3, [r6, ip]
 8002042:	b933      	cbnz	r3, 8002052 <quorem+0x9e>
 8002044:	9b01      	ldr	r3, [sp, #4]
 8002046:	3b04      	subs	r3, #4
 8002048:	429e      	cmp	r6, r3
 800204a:	461a      	mov	r2, r3
 800204c:	d330      	bcc.n	80020b0 <quorem+0xfc>
 800204e:	f8c8 4010 	str.w	r4, [r8, #16]
 8002052:	4640      	mov	r0, r8
 8002054:	f001 f82a 	bl	80030ac <__mcmp>
 8002058:	2800      	cmp	r0, #0
 800205a:	db25      	blt.n	80020a8 <quorem+0xf4>
 800205c:	3501      	adds	r5, #1
 800205e:	4630      	mov	r0, r6
 8002060:	f04f 0c00 	mov.w	ip, #0
 8002064:	f857 2b04 	ldr.w	r2, [r7], #4
 8002068:	f8d0 e000 	ldr.w	lr, [r0]
 800206c:	b293      	uxth	r3, r2
 800206e:	ebac 0303 	sub.w	r3, ip, r3
 8002072:	0c12      	lsrs	r2, r2, #16
 8002074:	fa13 f38e 	uxtah	r3, r3, lr
 8002078:	ebc2 421e 	rsb	r2, r2, lr, lsr #16
 800207c:	eb02 4223 	add.w	r2, r2, r3, asr #16
 8002080:	b29b      	uxth	r3, r3
 8002082:	ea43 4302 	orr.w	r3, r3, r2, lsl #16
 8002086:	45b9      	cmp	r9, r7
 8002088:	ea4f 4c22 	mov.w	ip, r2, asr #16
 800208c:	f840 3b04 	str.w	r3, [r0], #4
 8002090:	d2e8      	bcs.n	8002064 <quorem+0xb0>
 8002092:	f856 2024 	ldr.w	r2, [r6, r4, lsl #2]
 8002096:	eb06 0384 	add.w	r3, r6, r4, lsl #2
 800209a:	b92a      	cbnz	r2, 80020a8 <quorem+0xf4>
 800209c:	3b04      	subs	r3, #4
 800209e:	429e      	cmp	r6, r3
 80020a0:	461a      	mov	r2, r3
 80020a2:	d30b      	bcc.n	80020bc <quorem+0x108>
 80020a4:	f8c8 4010 	str.w	r4, [r8, #16]
 80020a8:	4628      	mov	r0, r5
 80020aa:	b003      	add	sp, #12
 80020ac:	e8bd 8ff0 	ldmia.w	sp!, {r4, r5, r6, r7, r8, r9, sl, fp, pc}
 80020b0:	6812      	ldr	r2, [r2, #0]
 80020b2:	3b04      	subs	r3, #4
 80020b4:	2a00      	cmp	r2, #0
 80020b6:	d1ca      	bne.n	800204e <quorem+0x9a>
 80020b8:	3c01      	subs	r4, #1
 80020ba:	e7c5      	b.n	8002048 <quorem+0x94>
 80020bc:	6812      	ldr	r2, [r2, #0]
 80020be:	3b04      	subs	r3, #4
 80020c0:	2a00      	cmp	r2, #0
 80020c2:	d1ef      	bne.n	80020a4 <quorem+0xf0>
 80020c4:	3c01      	subs	r4, #1
 80020c6:	e7ea      	b.n	800209e <quorem+0xea>
 80020c8:	2000      	movs	r0, #0
 80020ca:	e7ee      	b.n	80020aa <quorem+0xf6>
 80020cc:	0000      	movs	r0, r0
	...

080020d0 <_dtoa_r>:
 80020d0:	e92d 4ff0 	stmdb	sp!, {r4, r5, r6, r7, r8, r9, sl, fp, lr}
 80020d4:	ec57 6b10 	vmov	r6, r7, d0
 80020d8:	b097      	sub	sp, #92	; 0x5c
 80020da:	6a45      	ldr	r5, [r0, #36]	; 0x24
 80020dc:	9106      	str	r1, [sp, #24]
 80020de:	4604      	mov	r4, r0
 80020e0:	920b      	str	r2, [sp, #44]	; 0x2c
 80020e2:	9312      	str	r3, [sp, #72]	; 0x48
 80020e4:	f8dd 8080 	ldr.w	r8, [sp, #128]	; 0x80
 80020e8:	e9cd 6700 	strd	r6, r7, [sp]
 80020ec:	b93d      	cbnz	r5, 80020fe <_dtoa_r+0x2e>
 80020ee:	2010      	movs	r0, #16
 80020f0:	f000 fdb4 	bl	8002c5c <malloc>
 80020f4:	6260      	str	r0, [r4, #36]	; 0x24
 80020f6:	e9c0 5501 	strd	r5, r5, [r0, #4]
 80020fa:	6005      	str	r5, [r0, #0]
 80020fc:	60c5      	str	r5, [r0, #12]
 80020fe:	6a63      	ldr	r3, [r4, #36]	; 0x24
 8002100:	6819      	ldr	r1, [r3, #0]
 8002102:	b151      	cbz	r1, 800211a <_dtoa_r+0x4a>
 8002104:	685a      	ldr	r2, [r3, #4]
 8002106:	604a      	str	r2, [r1, #4]
 8002108:	2301      	movs	r3, #1
 800210a:	4093      	lsls	r3, r2
 800210c:	608b      	str	r3, [r1, #8]
 800210e:	4620      	mov	r0, r4
 8002110:	f000 fdeb 	bl	8002cea <_Bfree>
 8002114:	6a63      	ldr	r3, [r4, #36]	; 0x24
 8002116:	2200      	movs	r2, #0
 8002118:	601a      	str	r2, [r3, #0]
 800211a:	1e3b      	subs	r3, r7, #0
 800211c:	bfbb      	ittet	lt
 800211e:	f023 4300 	biclt.w	r3, r3, #2147483648	; 0x80000000
 8002122:	9301      	strlt	r3, [sp, #4]
 8002124:	2300      	movge	r3, #0
 8002126:	2201      	movlt	r2, #1
 8002128:	bfac      	ite	ge
 800212a:	f8c8 3000 	strge.w	r3, [r8]
 800212e:	f8c8 2000 	strlt.w	r2, [r8]
 8002132:	4baf      	ldr	r3, [pc, #700]	; (80023f0 <_dtoa_r+0x320>)
 8002134:	f8dd 8004 	ldr.w	r8, [sp, #4]
 8002138:	ea33 0308 	bics.w	r3, r3, r8
 800213c:	d114      	bne.n	8002168 <_dtoa_r+0x98>
 800213e:	9a12      	ldr	r2, [sp, #72]	; 0x48
 8002140:	f242 730f 	movw	r3, #9999	; 0x270f
 8002144:	6013      	str	r3, [r2, #0]
 8002146:	9b00      	ldr	r3, [sp, #0]
 8002148:	b923      	cbnz	r3, 8002154 <_dtoa_r+0x84>
 800214a:	f3c8 0013 	ubfx	r0, r8, #0, #20
 800214e:	2800      	cmp	r0, #0
 8002150:	f000 8542 	beq.w	8002bd8 <_dtoa_r+0xb08>
 8002154:	9b21      	ldr	r3, [sp, #132]	; 0x84
 8002156:	f8df b2ac 	ldr.w	fp, [pc, #684]	; 8002404 <_dtoa_r+0x334>
 800215a:	2b00      	cmp	r3, #0
 800215c:	f000 8544 	beq.w	8002be8 <_dtoa_r+0xb18>
 8002160:	f10b 0303 	add.w	r3, fp, #3
 8002164:	f000 bd3e 	b.w	8002be4 <_dtoa_r+0xb14>
 8002168:	e9dd 6700 	ldrd	r6, r7, [sp]
 800216c:	2200      	movs	r2, #0
 800216e:	2300      	movs	r3, #0
 8002170:	4630      	mov	r0, r6
 8002172:	4639      	mov	r1, r7
 8002174:	f7fe fcb0 	bl	8000ad8 <__aeabi_dcmpeq>
 8002178:	4681      	mov	r9, r0
 800217a:	b168      	cbz	r0, 8002198 <_dtoa_r+0xc8>
 800217c:	9a12      	ldr	r2, [sp, #72]	; 0x48
 800217e:	2301      	movs	r3, #1
 8002180:	6013      	str	r3, [r2, #0]
 8002182:	9b21      	ldr	r3, [sp, #132]	; 0x84
 8002184:	2b00      	cmp	r3, #0
 8002186:	f000 8524 	beq.w	8002bd2 <_dtoa_r+0xb02>
 800218a:	4b9a      	ldr	r3, [pc, #616]	; (80023f4 <_dtoa_r+0x324>)
 800218c:	9a21      	ldr	r2, [sp, #132]	; 0x84
 800218e:	f103 3bff 	add.w	fp, r3, #4294967295
 8002192:	6013      	str	r3, [r2, #0]
 8002194:	f000 bd28 	b.w	8002be8 <_dtoa_r+0xb18>
 8002198:	aa14      	add	r2, sp, #80	; 0x50
 800219a:	a915      	add	r1, sp, #84	; 0x54
 800219c:	ec47 6b10 	vmov	d0, r6, r7
 80021a0:	4620      	mov	r0, r4
 80021a2:	f000 fffa 	bl	800319a <__d2b>
 80021a6:	f3c8 550a 	ubfx	r5, r8, #20, #11
 80021aa:	9004      	str	r0, [sp, #16]
 80021ac:	2d00      	cmp	r5, #0
 80021ae:	d07c      	beq.n	80022aa <_dtoa_r+0x1da>
 80021b0:	f3c7 0313 	ubfx	r3, r7, #0, #20
 80021b4:	f043 5b7f 	orr.w	fp, r3, #1069547520	; 0x3fc00000
 80021b8:	46b2      	mov	sl, r6
 80021ba:	f44b 1b40 	orr.w	fp, fp, #3145728	; 0x300000
 80021be:	f2a5 35ff 	subw	r5, r5, #1023	; 0x3ff
 80021c2:	f8cd 904c 	str.w	r9, [sp, #76]	; 0x4c
 80021c6:	2200      	movs	r2, #0
 80021c8:	4b8b      	ldr	r3, [pc, #556]	; (80023f8 <_dtoa_r+0x328>)
 80021ca:	4650      	mov	r0, sl
 80021cc:	4659      	mov	r1, fp
 80021ce:	f7fe f863 	bl	8000298 <__aeabi_dsub>
 80021d2:	a381      	add	r3, pc, #516	; (adr r3, 80023d8 <_dtoa_r+0x308>)
 80021d4:	e9d3 2300 	ldrd	r2, r3, [r3]
 80021d8:	f7fe fa16 	bl	8000608 <__aeabi_dmul>
 80021dc:	a380      	add	r3, pc, #512	; (adr r3, 80023e0 <_dtoa_r+0x310>)
 80021de:	e9d3 2300 	ldrd	r2, r3, [r3]
 80021e2:	f7fe f85b 	bl	800029c <__adddf3>
 80021e6:	4606      	mov	r6, r0
 80021e8:	4628      	mov	r0, r5
 80021ea:	460f      	mov	r7, r1
 80021ec:	f7fe f9a2 	bl	8000534 <__aeabi_i2d>
 80021f0:	a37d      	add	r3, pc, #500	; (adr r3, 80023e8 <_dtoa_r+0x318>)
 80021f2:	e9d3 2300 	ldrd	r2, r3, [r3]
 80021f6:	f7fe fa07 	bl	8000608 <__aeabi_dmul>
 80021fa:	4602      	mov	r2, r0
 80021fc:	460b      	mov	r3, r1
 80021fe:	4630      	mov	r0, r6
 8002200:	4639      	mov	r1, r7
 8002202:	f7fe f84b 	bl	800029c <__adddf3>
 8002206:	4606      	mov	r6, r0
 8002208:	460f      	mov	r7, r1
 800220a:	f7fe fcad 	bl	8000b68 <__aeabi_d2iz>
 800220e:	2200      	movs	r2, #0
 8002210:	4682      	mov	sl, r0
 8002212:	2300      	movs	r3, #0
 8002214:	4630      	mov	r0, r6
 8002216:	4639      	mov	r1, r7
 8002218:	f7fe fc68 	bl	8000aec <__aeabi_dcmplt>
 800221c:	b148      	cbz	r0, 8002232 <_dtoa_r+0x162>
 800221e:	4650      	mov	r0, sl
 8002220:	f7fe f988 	bl	8000534 <__aeabi_i2d>
 8002224:	4632      	mov	r2, r6
 8002226:	463b      	mov	r3, r7
 8002228:	f7fe fc56 	bl	8000ad8 <__aeabi_dcmpeq>
 800222c:	b908      	cbnz	r0, 8002232 <_dtoa_r+0x162>
 800222e:	f10a 3aff 	add.w	sl, sl, #4294967295
 8002232:	f1ba 0f16 	cmp.w	sl, #22
 8002236:	d859      	bhi.n	80022ec <_dtoa_r+0x21c>
 8002238:	4970      	ldr	r1, [pc, #448]	; (80023fc <_dtoa_r+0x32c>)
 800223a:	eb01 01ca 	add.w	r1, r1, sl, lsl #3
 800223e:	e9dd 2300 	ldrd	r2, r3, [sp]
 8002242:	e9d1 0100 	ldrd	r0, r1, [r1]
 8002246:	f7fe fc6f 	bl	8000b28 <__aeabi_dcmpgt>
 800224a:	2800      	cmp	r0, #0
 800224c:	d050      	beq.n	80022f0 <_dtoa_r+0x220>
 800224e:	f10a 3aff 	add.w	sl, sl, #4294967295
 8002252:	2300      	movs	r3, #0
 8002254:	930f      	str	r3, [sp, #60]	; 0x3c
 8002256:	9b14      	ldr	r3, [sp, #80]	; 0x50
 8002258:	1b5d      	subs	r5, r3, r5
 800225a:	f1b5 0801 	subs.w	r8, r5, #1
 800225e:	bf49      	itett	mi
 8002260:	f1c5 0301 	rsbmi	r3, r5, #1
 8002264:	2300      	movpl	r3, #0
 8002266:	9305      	strmi	r3, [sp, #20]
 8002268:	f04f 0800 	movmi.w	r8, #0
 800226c:	bf58      	it	pl
 800226e:	9305      	strpl	r3, [sp, #20]
 8002270:	f1ba 0f00 	cmp.w	sl, #0
 8002274:	db3e      	blt.n	80022f4 <_dtoa_r+0x224>
 8002276:	2300      	movs	r3, #0
 8002278:	44d0      	add	r8, sl
 800227a:	f8cd a038 	str.w	sl, [sp, #56]	; 0x38
 800227e:	9307      	str	r3, [sp, #28]
 8002280:	9b06      	ldr	r3, [sp, #24]
 8002282:	2b09      	cmp	r3, #9
 8002284:	f200 8090 	bhi.w	80023a8 <_dtoa_r+0x2d8>
 8002288:	2b05      	cmp	r3, #5
 800228a:	bfc4      	itt	gt
 800228c:	3b04      	subgt	r3, #4
 800228e:	9306      	strgt	r3, [sp, #24]
 8002290:	9b06      	ldr	r3, [sp, #24]
 8002292:	f1a3 0302 	sub.w	r3, r3, #2
 8002296:	bfcc      	ite	gt
 8002298:	2500      	movgt	r5, #0
 800229a:	2501      	movle	r5, #1
 800229c:	2b03      	cmp	r3, #3
 800229e:	f200 808f 	bhi.w	80023c0 <_dtoa_r+0x2f0>
 80022a2:	e8df f003 	tbb	[pc, r3]
 80022a6:	7f7d      	.short	0x7f7d
 80022a8:	7131      	.short	0x7131
 80022aa:	e9dd 5314 	ldrd	r5, r3, [sp, #80]	; 0x50
 80022ae:	441d      	add	r5, r3
 80022b0:	f205 4032 	addw	r0, r5, #1074	; 0x432
 80022b4:	2820      	cmp	r0, #32
 80022b6:	dd13      	ble.n	80022e0 <_dtoa_r+0x210>
 80022b8:	f1c0 0040 	rsb	r0, r0, #64	; 0x40
 80022bc:	9b00      	ldr	r3, [sp, #0]
 80022be:	fa08 f800 	lsl.w	r8, r8, r0
 80022c2:	f205 4012 	addw	r0, r5, #1042	; 0x412
 80022c6:	fa23 f000 	lsr.w	r0, r3, r0
 80022ca:	ea48 0000 	orr.w	r0, r8, r0
 80022ce:	f7fe f921 	bl	8000514 <__aeabi_ui2d>
 80022d2:	2301      	movs	r3, #1
 80022d4:	4682      	mov	sl, r0
 80022d6:	f1a1 7bf8 	sub.w	fp, r1, #32505856	; 0x1f00000
 80022da:	3d01      	subs	r5, #1
 80022dc:	9313      	str	r3, [sp, #76]	; 0x4c
 80022de:	e772      	b.n	80021c6 <_dtoa_r+0xf6>
 80022e0:	9b00      	ldr	r3, [sp, #0]
 80022e2:	f1c0 0020 	rsb	r0, r0, #32
 80022e6:	fa03 f000 	lsl.w	r0, r3, r0
 80022ea:	e7f0      	b.n	80022ce <_dtoa_r+0x1fe>
 80022ec:	2301      	movs	r3, #1
 80022ee:	e7b1      	b.n	8002254 <_dtoa_r+0x184>
 80022f0:	900f      	str	r0, [sp, #60]	; 0x3c
 80022f2:	e7b0      	b.n	8002256 <_dtoa_r+0x186>
 80022f4:	9b05      	ldr	r3, [sp, #20]
 80022f6:	eba3 030a 	sub.w	r3, r3, sl
 80022fa:	9305      	str	r3, [sp, #20]
 80022fc:	f1ca 0300 	rsb	r3, sl, #0
 8002300:	9307      	str	r3, [sp, #28]
 8002302:	2300      	movs	r3, #0
 8002304:	930e      	str	r3, [sp, #56]	; 0x38
 8002306:	e7bb      	b.n	8002280 <_dtoa_r+0x1b0>
 8002308:	2301      	movs	r3, #1
 800230a:	930a      	str	r3, [sp, #40]	; 0x28
 800230c:	9b0b      	ldr	r3, [sp, #44]	; 0x2c
 800230e:	2b00      	cmp	r3, #0
 8002310:	dd59      	ble.n	80023c6 <_dtoa_r+0x2f6>
 8002312:	9302      	str	r3, [sp, #8]
 8002314:	4699      	mov	r9, r3
 8002316:	6a66      	ldr	r6, [r4, #36]	; 0x24
 8002318:	2200      	movs	r2, #0
 800231a:	6072      	str	r2, [r6, #4]
 800231c:	2204      	movs	r2, #4
 800231e:	f102 0014 	add.w	r0, r2, #20
 8002322:	4298      	cmp	r0, r3
 8002324:	6871      	ldr	r1, [r6, #4]
 8002326:	d953      	bls.n	80023d0 <_dtoa_r+0x300>
 8002328:	4620      	mov	r0, r4
 800232a:	f000 fcaa 	bl	8002c82 <_Balloc>
 800232e:	6a63      	ldr	r3, [r4, #36]	; 0x24
 8002330:	6030      	str	r0, [r6, #0]
 8002332:	f1b9 0f0e 	cmp.w	r9, #14
 8002336:	f8d3 b000 	ldr.w	fp, [r3]
 800233a:	f200 80e6 	bhi.w	800250a <_dtoa_r+0x43a>
 800233e:	2d00      	cmp	r5, #0
 8002340:	f000 80e3 	beq.w	800250a <_dtoa_r+0x43a>
 8002344:	ed9d 7b00 	vldr	d7, [sp]
 8002348:	f1ba 0f00 	cmp.w	sl, #0
 800234c:	ed8d 7b10 	vstr	d7, [sp, #64]	; 0x40
 8002350:	dd74      	ble.n	800243c <_dtoa_r+0x36c>
 8002352:	4a2a      	ldr	r2, [pc, #168]	; (80023fc <_dtoa_r+0x32c>)
 8002354:	f00a 030f 	and.w	r3, sl, #15
 8002358:	eb02 03c3 	add.w	r3, r2, r3, lsl #3
 800235c:	ed93 7b00 	vldr	d7, [r3]
 8002360:	ea4f 162a 	mov.w	r6, sl, asr #4
 8002364:	06f0      	lsls	r0, r6, #27
 8002366:	ed8d 7b08 	vstr	d7, [sp, #32]
 800236a:	d565      	bpl.n	8002438 <_dtoa_r+0x368>
 800236c:	4b24      	ldr	r3, [pc, #144]	; (8002400 <_dtoa_r+0x330>)
 800236e:	e9dd 0110 	ldrd	r0, r1, [sp, #64]	; 0x40
 8002372:	e9d3 2308 	ldrd	r2, r3, [r3, #32]
 8002376:	f7fe fa71 	bl	800085c <__aeabi_ddiv>
 800237a:	e9cd 0100 	strd	r0, r1, [sp]
 800237e:	f006 060f 	and.w	r6, r6, #15
 8002382:	2503      	movs	r5, #3
 8002384:	4f1e      	ldr	r7, [pc, #120]	; (8002400 <_dtoa_r+0x330>)
 8002386:	e04c      	b.n	8002422 <_dtoa_r+0x352>
 8002388:	2301      	movs	r3, #1
 800238a:	930a      	str	r3, [sp, #40]	; 0x28
 800238c:	9b0b      	ldr	r3, [sp, #44]	; 0x2c
 800238e:	4453      	add	r3, sl
 8002390:	f103 0901 	add.w	r9, r3, #1
 8002394:	9302      	str	r3, [sp, #8]
 8002396:	464b      	mov	r3, r9
 8002398:	2b01      	cmp	r3, #1
 800239a:	bfb8      	it	lt
 800239c:	2301      	movlt	r3, #1
 800239e:	e7ba      	b.n	8002316 <_dtoa_r+0x246>
 80023a0:	2300      	movs	r3, #0
 80023a2:	e7b2      	b.n	800230a <_dtoa_r+0x23a>
 80023a4:	2300      	movs	r3, #0
 80023a6:	e7f0      	b.n	800238a <_dtoa_r+0x2ba>
 80023a8:	2501      	movs	r5, #1
 80023aa:	2300      	movs	r3, #0
 80023ac:	9306      	str	r3, [sp, #24]
 80023ae:	950a      	str	r5, [sp, #40]	; 0x28
 80023b0:	f04f 33ff 	mov.w	r3, #4294967295
 80023b4:	9302      	str	r3, [sp, #8]
 80023b6:	4699      	mov	r9, r3
 80023b8:	2200      	movs	r2, #0
 80023ba:	2312      	movs	r3, #18
 80023bc:	920b      	str	r2, [sp, #44]	; 0x2c
 80023be:	e7aa      	b.n	8002316 <_dtoa_r+0x246>
 80023c0:	2301      	movs	r3, #1
 80023c2:	930a      	str	r3, [sp, #40]	; 0x28
 80023c4:	e7f4      	b.n	80023b0 <_dtoa_r+0x2e0>
 80023c6:	2301      	movs	r3, #1
 80023c8:	9302      	str	r3, [sp, #8]
 80023ca:	4699      	mov	r9, r3
 80023cc:	461a      	mov	r2, r3
 80023ce:	e7f5      	b.n	80023bc <_dtoa_r+0x2ec>
 80023d0:	3101      	adds	r1, #1
 80023d2:	6071      	str	r1, [r6, #4]
 80023d4:	0052      	lsls	r2, r2, #1
 80023d6:	e7a2      	b.n	800231e <_dtoa_r+0x24e>
 80023d8:	636f4361 	.word	0x636f4361
 80023dc:	3fd287a7 	.word	0x3fd287a7
 80023e0:	8b60c8b3 	.word	0x8b60c8b3
 80023e4:	3fc68a28 	.word	0x3fc68a28
 80023e8:	509f79fb 	.word	0x509f79fb
 80023ec:	3fd34413 	.word	0x3fd34413
 80023f0:	7ff00000 	.word	0x7ff00000
 80023f4:	080037a0 	.word	0x080037a0
 80023f8:	3ff80000 	.word	0x3ff80000
 80023fc:	080037f8 	.word	0x080037f8
 8002400:	080037d0 	.word	0x080037d0
 8002404:	080037cc 	.word	0x080037cc
 8002408:	07f1      	lsls	r1, r6, #31
 800240a:	d508      	bpl.n	800241e <_dtoa_r+0x34e>
 800240c:	e9dd 0108 	ldrd	r0, r1, [sp, #32]
 8002410:	e9d7 2300 	ldrd	r2, r3, [r7]
 8002414:	f7fe f8f8 	bl	8000608 <__aeabi_dmul>
 8002418:	e9cd 0108 	strd	r0, r1, [sp, #32]
 800241c:	3501      	adds	r5, #1
 800241e:	1076      	asrs	r6, r6, #1
 8002420:	3708      	adds	r7, #8
 8002422:	2e00      	cmp	r6, #0
 8002424:	d1f0      	bne.n	8002408 <_dtoa_r+0x338>
 8002426:	e9dd 2308 	ldrd	r2, r3, [sp, #32]
 800242a:	e9dd 0100 	ldrd	r0, r1, [sp]
 800242e:	f7fe fa15 	bl	800085c <__aeabi_ddiv>
 8002432:	e9cd 0100 	strd	r0, r1, [sp]
 8002436:	e01a      	b.n	800246e <_dtoa_r+0x39e>
 8002438:	2502      	movs	r5, #2
 800243a:	e7a3      	b.n	8002384 <_dtoa_r+0x2b4>
 800243c:	f000 80a0 	beq.w	8002580 <_dtoa_r+0x4b0>
 8002440:	f1ca 0600 	rsb	r6, sl, #0
 8002444:	4b9f      	ldr	r3, [pc, #636]	; (80026c4 <_dtoa_r+0x5f4>)
 8002446:	4fa0      	ldr	r7, [pc, #640]	; (80026c8 <_dtoa_r+0x5f8>)
 8002448:	f006 020f 	and.w	r2, r6, #15
 800244c:	eb03 03c2 	add.w	r3, r3, r2, lsl #3
 8002450:	e9d3 2300 	ldrd	r2, r3, [r3]
 8002454:	e9dd 0110 	ldrd	r0, r1, [sp, #64]	; 0x40
 8002458:	f7fe f8d6 	bl	8000608 <__aeabi_dmul>
 800245c:	e9cd 0100 	strd	r0, r1, [sp]
 8002460:	1136      	asrs	r6, r6, #4
 8002462:	2300      	movs	r3, #0
 8002464:	2502      	movs	r5, #2
 8002466:	2e00      	cmp	r6, #0
 8002468:	d17f      	bne.n	800256a <_dtoa_r+0x49a>
 800246a:	2b00      	cmp	r3, #0
 800246c:	d1e1      	bne.n	8002432 <_dtoa_r+0x362>
 800246e:	9b0f      	ldr	r3, [sp, #60]	; 0x3c
 8002470:	2b00      	cmp	r3, #0
 8002472:	f000 8087 	beq.w	8002584 <_dtoa_r+0x4b4>
 8002476:	e9dd 6700 	ldrd	r6, r7, [sp]
 800247a:	2200      	movs	r2, #0
 800247c:	4b93      	ldr	r3, [pc, #588]	; (80026cc <_dtoa_r+0x5fc>)
 800247e:	4630      	mov	r0, r6
 8002480:	4639      	mov	r1, r7
 8002482:	f7fe fb33 	bl	8000aec <__aeabi_dcmplt>
 8002486:	2800      	cmp	r0, #0
 8002488:	d07c      	beq.n	8002584 <_dtoa_r+0x4b4>
 800248a:	f1b9 0f00 	cmp.w	r9, #0
 800248e:	d079      	beq.n	8002584 <_dtoa_r+0x4b4>
 8002490:	9b02      	ldr	r3, [sp, #8]
 8002492:	2b00      	cmp	r3, #0
 8002494:	dd35      	ble.n	8002502 <_dtoa_r+0x432>
 8002496:	f10a 33ff 	add.w	r3, sl, #4294967295
 800249a:	9308      	str	r3, [sp, #32]
 800249c:	4639      	mov	r1, r7
 800249e:	2200      	movs	r2, #0
 80024a0:	4b8b      	ldr	r3, [pc, #556]	; (80026d0 <_dtoa_r+0x600>)
 80024a2:	4630      	mov	r0, r6
 80024a4:	f7fe f8b0 	bl	8000608 <__aeabi_dmul>
 80024a8:	e9cd 0100 	strd	r0, r1, [sp]
 80024ac:	9f02      	ldr	r7, [sp, #8]
 80024ae:	3501      	adds	r5, #1
 80024b0:	4628      	mov	r0, r5
 80024b2:	f7fe f83f 	bl	8000534 <__aeabi_i2d>
 80024b6:	e9dd 2300 	ldrd	r2, r3, [sp]
 80024ba:	f7fe f8a5 	bl	8000608 <__aeabi_dmul>
 80024be:	2200      	movs	r2, #0
 80024c0:	4b84      	ldr	r3, [pc, #528]	; (80026d4 <_dtoa_r+0x604>)
 80024c2:	f7fd feeb 	bl	800029c <__adddf3>
 80024c6:	4605      	mov	r5, r0
 80024c8:	f1a1 7650 	sub.w	r6, r1, #54525952	; 0x3400000
 80024cc:	2f00      	cmp	r7, #0
 80024ce:	d15d      	bne.n	800258c <_dtoa_r+0x4bc>
 80024d0:	2200      	movs	r2, #0
 80024d2:	4b81      	ldr	r3, [pc, #516]	; (80026d8 <_dtoa_r+0x608>)
 80024d4:	e9dd 0100 	ldrd	r0, r1, [sp]
 80024d8:	f7fd fede 	bl	8000298 <__aeabi_dsub>
 80024dc:	462a      	mov	r2, r5
 80024de:	4633      	mov	r3, r6
 80024e0:	e9cd 0100 	strd	r0, r1, [sp]
 80024e4:	f7fe fb20 	bl	8000b28 <__aeabi_dcmpgt>
 80024e8:	2800      	cmp	r0, #0
 80024ea:	f040 8288 	bne.w	80029fe <_dtoa_r+0x92e>
 80024ee:	462a      	mov	r2, r5
 80024f0:	f106 4300 	add.w	r3, r6, #2147483648	; 0x80000000
 80024f4:	e9dd 0100 	ldrd	r0, r1, [sp]
 80024f8:	f7fe faf8 	bl	8000aec <__aeabi_dcmplt>
 80024fc:	2800      	cmp	r0, #0
 80024fe:	f040 827c 	bne.w	80029fa <_dtoa_r+0x92a>
 8002502:	e9dd 2310 	ldrd	r2, r3, [sp, #64]	; 0x40
 8002506:	e9cd 2300 	strd	r2, r3, [sp]
 800250a:	9b15      	ldr	r3, [sp, #84]	; 0x54
 800250c:	2b00      	cmp	r3, #0
 800250e:	f2c0 8150 	blt.w	80027b2 <_dtoa_r+0x6e2>
 8002512:	f1ba 0f0e 	cmp.w	sl, #14
 8002516:	f300 814c 	bgt.w	80027b2 <_dtoa_r+0x6e2>
 800251a:	4b6a      	ldr	r3, [pc, #424]	; (80026c4 <_dtoa_r+0x5f4>)
 800251c:	eb03 03ca 	add.w	r3, r3, sl, lsl #3
 8002520:	ed93 7b00 	vldr	d7, [r3]
 8002524:	9b0b      	ldr	r3, [sp, #44]	; 0x2c
 8002526:	2b00      	cmp	r3, #0
 8002528:	ed8d 7b02 	vstr	d7, [sp, #8]
 800252c:	f280 80d8 	bge.w	80026e0 <_dtoa_r+0x610>
 8002530:	f1b9 0f00 	cmp.w	r9, #0
 8002534:	f300 80d4 	bgt.w	80026e0 <_dtoa_r+0x610>
 8002538:	f040 825e 	bne.w	80029f8 <_dtoa_r+0x928>
 800253c:	2200      	movs	r2, #0
 800253e:	4b66      	ldr	r3, [pc, #408]	; (80026d8 <_dtoa_r+0x608>)
 8002540:	ec51 0b17 	vmov	r0, r1, d7
 8002544:	f7fe f860 	bl	8000608 <__aeabi_dmul>
 8002548:	e9dd 2300 	ldrd	r2, r3, [sp]
 800254c:	f7fe fae2 	bl	8000b14 <__aeabi_dcmpge>
 8002550:	464f      	mov	r7, r9
 8002552:	464e      	mov	r6, r9
 8002554:	2800      	cmp	r0, #0
 8002556:	f040 8234 	bne.w	80029c2 <_dtoa_r+0x8f2>
 800255a:	2331      	movs	r3, #49	; 0x31
 800255c:	f10b 0501 	add.w	r5, fp, #1
 8002560:	f88b 3000 	strb.w	r3, [fp]
 8002564:	f10a 0a01 	add.w	sl, sl, #1
 8002568:	e22f      	b.n	80029ca <_dtoa_r+0x8fa>
 800256a:	07f2      	lsls	r2, r6, #31
 800256c:	d505      	bpl.n	800257a <_dtoa_r+0x4aa>
 800256e:	e9d7 2300 	ldrd	r2, r3, [r7]
 8002572:	f7fe f849 	bl	8000608 <__aeabi_dmul>
 8002576:	3501      	adds	r5, #1
 8002578:	2301      	movs	r3, #1
 800257a:	1076      	asrs	r6, r6, #1
 800257c:	3708      	adds	r7, #8
 800257e:	e772      	b.n	8002466 <_dtoa_r+0x396>
 8002580:	2502      	movs	r5, #2
 8002582:	e774      	b.n	800246e <_dtoa_r+0x39e>
 8002584:	f8cd a020 	str.w	sl, [sp, #32]
 8002588:	464f      	mov	r7, r9
 800258a:	e791      	b.n	80024b0 <_dtoa_r+0x3e0>
 800258c:	4b4d      	ldr	r3, [pc, #308]	; (80026c4 <_dtoa_r+0x5f4>)
 800258e:	eb03 03c7 	add.w	r3, r3, r7, lsl #3
 8002592:	e953 0102 	ldrd	r0, r1, [r3, #-8]
 8002596:	9b0a      	ldr	r3, [sp, #40]	; 0x28
 8002598:	2b00      	cmp	r3, #0
 800259a:	d047      	beq.n	800262c <_dtoa_r+0x55c>
 800259c:	4602      	mov	r2, r0
 800259e:	460b      	mov	r3, r1
 80025a0:	2000      	movs	r0, #0
 80025a2:	494e      	ldr	r1, [pc, #312]	; (80026dc <_dtoa_r+0x60c>)
 80025a4:	f7fe f95a 	bl	800085c <__aeabi_ddiv>
 80025a8:	462a      	mov	r2, r5
 80025aa:	4633      	mov	r3, r6
 80025ac:	f7fd fe74 	bl	8000298 <__aeabi_dsub>
 80025b0:	e9cd 010c 	strd	r0, r1, [sp, #48]	; 0x30
 80025b4:	465d      	mov	r5, fp
 80025b6:	e9dd 0100 	ldrd	r0, r1, [sp]
 80025ba:	f7fe fad5 	bl	8000b68 <__aeabi_d2iz>
 80025be:	4606      	mov	r6, r0
 80025c0:	f7fd ffb8 	bl	8000534 <__aeabi_i2d>
 80025c4:	4602      	mov	r2, r0
 80025c6:	460b      	mov	r3, r1
 80025c8:	e9dd 0100 	ldrd	r0, r1, [sp]
 80025cc:	f7fd fe64 	bl	8000298 <__aeabi_dsub>
 80025d0:	3630      	adds	r6, #48	; 0x30
 80025d2:	f805 6b01 	strb.w	r6, [r5], #1
 80025d6:	e9dd 230c 	ldrd	r2, r3, [sp, #48]	; 0x30
 80025da:	e9cd 0100 	strd	r0, r1, [sp]
 80025de:	f7fe fa85 	bl	8000aec <__aeabi_dcmplt>
 80025e2:	2800      	cmp	r0, #0
 80025e4:	d163      	bne.n	80026ae <_dtoa_r+0x5de>
 80025e6:	e9dd 2300 	ldrd	r2, r3, [sp]
 80025ea:	2000      	movs	r0, #0
 80025ec:	4937      	ldr	r1, [pc, #220]	; (80026cc <_dtoa_r+0x5fc>)
 80025ee:	f7fd fe53 	bl	8000298 <__aeabi_dsub>
 80025f2:	e9dd 230c 	ldrd	r2, r3, [sp, #48]	; 0x30
 80025f6:	f7fe fa79 	bl	8000aec <__aeabi_dcmplt>
 80025fa:	2800      	cmp	r0, #0
 80025fc:	f040 80b7 	bne.w	800276e <_dtoa_r+0x69e>
 8002600:	eba5 030b 	sub.w	r3, r5, fp
 8002604:	429f      	cmp	r7, r3
 8002606:	f77f af7c 	ble.w	8002502 <_dtoa_r+0x432>
 800260a:	2200      	movs	r2, #0
 800260c:	4b30      	ldr	r3, [pc, #192]	; (80026d0 <_dtoa_r+0x600>)
 800260e:	e9dd 010c 	ldrd	r0, r1, [sp, #48]	; 0x30
 8002612:	f7fd fff9 	bl	8000608 <__aeabi_dmul>
 8002616:	2200      	movs	r2, #0
 8002618:	e9cd 010c 	strd	r0, r1, [sp, #48]	; 0x30
 800261c:	4b2c      	ldr	r3, [pc, #176]	; (80026d0 <_dtoa_r+0x600>)
 800261e:	e9dd 0100 	ldrd	r0, r1, [sp]
 8002622:	f7fd fff1 	bl	8000608 <__aeabi_dmul>
 8002626:	e9cd 0100 	strd	r0, r1, [sp]
 800262a:	e7c4      	b.n	80025b6 <_dtoa_r+0x4e6>
 800262c:	462a      	mov	r2, r5
 800262e:	4633      	mov	r3, r6
 8002630:	f7fd ffea 	bl	8000608 <__aeabi_dmul>
 8002634:	e9cd 010c 	strd	r0, r1, [sp, #48]	; 0x30
 8002638:	eb0b 0507 	add.w	r5, fp, r7
 800263c:	465e      	mov	r6, fp
 800263e:	e9dd 0100 	ldrd	r0, r1, [sp]
 8002642:	f7fe fa91 	bl	8000b68 <__aeabi_d2iz>
 8002646:	4607      	mov	r7, r0
 8002648:	f7fd ff74 	bl	8000534 <__aeabi_i2d>
 800264c:	3730      	adds	r7, #48	; 0x30
 800264e:	4602      	mov	r2, r0
 8002650:	460b      	mov	r3, r1
 8002652:	e9dd 0100 	ldrd	r0, r1, [sp]
 8002656:	f7fd fe1f 	bl	8000298 <__aeabi_dsub>
 800265a:	f806 7b01 	strb.w	r7, [r6], #1
 800265e:	42ae      	cmp	r6, r5
 8002660:	e9cd 0100 	strd	r0, r1, [sp]
 8002664:	f04f 0200 	mov.w	r2, #0
 8002668:	d126      	bne.n	80026b8 <_dtoa_r+0x5e8>
 800266a:	4b1c      	ldr	r3, [pc, #112]	; (80026dc <_dtoa_r+0x60c>)
 800266c:	e9dd 010c 	ldrd	r0, r1, [sp, #48]	; 0x30
 8002670:	f7fd fe14 	bl	800029c <__adddf3>
 8002674:	4602      	mov	r2, r0
 8002676:	460b      	mov	r3, r1
 8002678:	e9dd 0100 	ldrd	r0, r1, [sp]
 800267c:	f7fe fa54 	bl	8000b28 <__aeabi_dcmpgt>
 8002680:	2800      	cmp	r0, #0
 8002682:	d174      	bne.n	800276e <_dtoa_r+0x69e>
 8002684:	e9dd 230c 	ldrd	r2, r3, [sp, #48]	; 0x30
 8002688:	2000      	movs	r0, #0
 800268a:	4914      	ldr	r1, [pc, #80]	; (80026dc <_dtoa_r+0x60c>)
 800268c:	f7fd fe04 	bl	8000298 <__aeabi_dsub>
 8002690:	4602      	mov	r2, r0
 8002692:	460b      	mov	r3, r1
 8002694:	e9dd 0100 	ldrd	r0, r1, [sp]
 8002698:	f7fe fa28 	bl	8000aec <__aeabi_dcmplt>
 800269c:	2800      	cmp	r0, #0
 800269e:	f43f af30 	beq.w	8002502 <_dtoa_r+0x432>
 80026a2:	f815 3c01 	ldrb.w	r3, [r5, #-1]
 80026a6:	2b30      	cmp	r3, #48	; 0x30
 80026a8:	f105 32ff 	add.w	r2, r5, #4294967295
 80026ac:	d002      	beq.n	80026b4 <_dtoa_r+0x5e4>
 80026ae:	f8dd a020 	ldr.w	sl, [sp, #32]
 80026b2:	e04a      	b.n	800274a <_dtoa_r+0x67a>
 80026b4:	4615      	mov	r5, r2
 80026b6:	e7f4      	b.n	80026a2 <_dtoa_r+0x5d2>
 80026b8:	4b05      	ldr	r3, [pc, #20]	; (80026d0 <_dtoa_r+0x600>)
 80026ba:	f7fd ffa5 	bl	8000608 <__aeabi_dmul>
 80026be:	e9cd 0100 	strd	r0, r1, [sp]
 80026c2:	e7bc      	b.n	800263e <_dtoa_r+0x56e>
 80026c4:	080037f8 	.word	0x080037f8
 80026c8:	080037d0 	.word	0x080037d0
 80026cc:	3ff00000 	.word	0x3ff00000
 80026d0:	40240000 	.word	0x40240000
 80026d4:	401c0000 	.word	0x401c0000
 80026d8:	40140000 	.word	0x40140000
 80026dc:	3fe00000 	.word	0x3fe00000
 80026e0:	e9dd 6700 	ldrd	r6, r7, [sp]
 80026e4:	465d      	mov	r5, fp
 80026e6:	e9dd 2302 	ldrd	r2, r3, [sp, #8]
 80026ea:	4630      	mov	r0, r6
 80026ec:	4639      	mov	r1, r7
 80026ee:	f7fe f8b5 	bl	800085c <__aeabi_ddiv>
 80026f2:	f7fe fa39 	bl	8000b68 <__aeabi_d2iz>
 80026f6:	4680      	mov	r8, r0
 80026f8:	f7fd ff1c 	bl	8000534 <__aeabi_i2d>
 80026fc:	e9dd 2302 	ldrd	r2, r3, [sp, #8]
 8002700:	f7fd ff82 	bl	8000608 <__aeabi_dmul>
 8002704:	4602      	mov	r2, r0
 8002706:	460b      	mov	r3, r1
 8002708:	4630      	mov	r0, r6
 800270a:	4639      	mov	r1, r7
 800270c:	f108 0630 	add.w	r6, r8, #48	; 0x30
 8002710:	f7fd fdc2 	bl	8000298 <__aeabi_dsub>
 8002714:	f805 6b01 	strb.w	r6, [r5], #1
 8002718:	eba5 060b 	sub.w	r6, r5, fp
 800271c:	45b1      	cmp	r9, r6
 800271e:	4602      	mov	r2, r0
 8002720:	460b      	mov	r3, r1
 8002722:	d139      	bne.n	8002798 <_dtoa_r+0x6c8>
 8002724:	f7fd fdba 	bl	800029c <__adddf3>
 8002728:	e9dd 2302 	ldrd	r2, r3, [sp, #8]
 800272c:	4606      	mov	r6, r0
 800272e:	460f      	mov	r7, r1
 8002730:	f7fe f9fa 	bl	8000b28 <__aeabi_dcmpgt>
 8002734:	b9c8      	cbnz	r0, 800276a <_dtoa_r+0x69a>
 8002736:	e9dd 2302 	ldrd	r2, r3, [sp, #8]
 800273a:	4630      	mov	r0, r6
 800273c:	4639      	mov	r1, r7
 800273e:	f7fe f9cb 	bl	8000ad8 <__aeabi_dcmpeq>
 8002742:	b110      	cbz	r0, 800274a <_dtoa_r+0x67a>
 8002744:	f018 0f01 	tst.w	r8, #1
 8002748:	d10f      	bne.n	800276a <_dtoa_r+0x69a>
 800274a:	9904      	ldr	r1, [sp, #16]
 800274c:	4620      	mov	r0, r4
 800274e:	f000 facc 	bl	8002cea <_Bfree>
 8002752:	2300      	movs	r3, #0
 8002754:	9a12      	ldr	r2, [sp, #72]	; 0x48
 8002756:	702b      	strb	r3, [r5, #0]
 8002758:	f10a 0301 	add.w	r3, sl, #1
 800275c:	6013      	str	r3, [r2, #0]
 800275e:	9b21      	ldr	r3, [sp, #132]	; 0x84
 8002760:	2b00      	cmp	r3, #0
 8002762:	f000 8241 	beq.w	8002be8 <_dtoa_r+0xb18>
 8002766:	601d      	str	r5, [r3, #0]
 8002768:	e23e      	b.n	8002be8 <_dtoa_r+0xb18>
 800276a:	f8cd a020 	str.w	sl, [sp, #32]
 800276e:	f815 2c01 	ldrb.w	r2, [r5, #-1]
 8002772:	2a39      	cmp	r2, #57	; 0x39
 8002774:	f105 33ff 	add.w	r3, r5, #4294967295
 8002778:	d108      	bne.n	800278c <_dtoa_r+0x6bc>
 800277a:	459b      	cmp	fp, r3
 800277c:	d10a      	bne.n	8002794 <_dtoa_r+0x6c4>
 800277e:	9b08      	ldr	r3, [sp, #32]
 8002780:	3301      	adds	r3, #1
 8002782:	9308      	str	r3, [sp, #32]
 8002784:	2330      	movs	r3, #48	; 0x30
 8002786:	f88b 3000 	strb.w	r3, [fp]
 800278a:	465b      	mov	r3, fp
 800278c:	781a      	ldrb	r2, [r3, #0]
 800278e:	3201      	adds	r2, #1
 8002790:	701a      	strb	r2, [r3, #0]
 8002792:	e78c      	b.n	80026ae <_dtoa_r+0x5de>
 8002794:	461d      	mov	r5, r3
 8002796:	e7ea      	b.n	800276e <_dtoa_r+0x69e>
 8002798:	2200      	movs	r2, #0
 800279a:	4b9b      	ldr	r3, [pc, #620]	; (8002a08 <_dtoa_r+0x938>)
 800279c:	f7fd ff34 	bl	8000608 <__aeabi_dmul>
 80027a0:	2200      	movs	r2, #0
 80027a2:	2300      	movs	r3, #0
 80027a4:	4606      	mov	r6, r0
 80027a6:	460f      	mov	r7, r1
 80027a8:	f7fe f996 	bl	8000ad8 <__aeabi_dcmpeq>
 80027ac:	2800      	cmp	r0, #0
 80027ae:	d09a      	beq.n	80026e6 <_dtoa_r+0x616>
 80027b0:	e7cb      	b.n	800274a <_dtoa_r+0x67a>
 80027b2:	9a0a      	ldr	r2, [sp, #40]	; 0x28
 80027b4:	2a00      	cmp	r2, #0
 80027b6:	f000 808b 	beq.w	80028d0 <_dtoa_r+0x800>
 80027ba:	9a06      	ldr	r2, [sp, #24]
 80027bc:	2a01      	cmp	r2, #1
 80027be:	dc6e      	bgt.n	800289e <_dtoa_r+0x7ce>
 80027c0:	9a13      	ldr	r2, [sp, #76]	; 0x4c
 80027c2:	2a00      	cmp	r2, #0
 80027c4:	d067      	beq.n	8002896 <_dtoa_r+0x7c6>
 80027c6:	f203 4333 	addw	r3, r3, #1075	; 0x433
 80027ca:	9f07      	ldr	r7, [sp, #28]
 80027cc:	9d05      	ldr	r5, [sp, #20]
 80027ce:	9a05      	ldr	r2, [sp, #20]
 80027d0:	2101      	movs	r1, #1
 80027d2:	441a      	add	r2, r3
 80027d4:	4620      	mov	r0, r4
 80027d6:	9205      	str	r2, [sp, #20]
 80027d8:	4498      	add	r8, r3
 80027da:	f000 fb26 	bl	8002e2a <__i2b>
 80027de:	4606      	mov	r6, r0
 80027e0:	2d00      	cmp	r5, #0
 80027e2:	dd0c      	ble.n	80027fe <_dtoa_r+0x72e>
 80027e4:	f1b8 0f00 	cmp.w	r8, #0
 80027e8:	dd09      	ble.n	80027fe <_dtoa_r+0x72e>
 80027ea:	4545      	cmp	r5, r8
 80027ec:	9a05      	ldr	r2, [sp, #20]
 80027ee:	462b      	mov	r3, r5
 80027f0:	bfa8      	it	ge
 80027f2:	4643      	movge	r3, r8
 80027f4:	1ad2      	subs	r2, r2, r3
 80027f6:	9205      	str	r2, [sp, #20]
 80027f8:	1aed      	subs	r5, r5, r3
 80027fa:	eba8 0803 	sub.w	r8, r8, r3
 80027fe:	9b07      	ldr	r3, [sp, #28]
 8002800:	b1eb      	cbz	r3, 800283e <_dtoa_r+0x76e>
 8002802:	9b0a      	ldr	r3, [sp, #40]	; 0x28
 8002804:	2b00      	cmp	r3, #0
 8002806:	d067      	beq.n	80028d8 <_dtoa_r+0x808>
 8002808:	b18f      	cbz	r7, 800282e <_dtoa_r+0x75e>
 800280a:	4631      	mov	r1, r6
 800280c:	463a      	mov	r2, r7
 800280e:	4620      	mov	r0, r4
 8002810:	f000 fbaa 	bl	8002f68 <__pow5mult>
 8002814:	9a04      	ldr	r2, [sp, #16]
 8002816:	4601      	mov	r1, r0
 8002818:	4606      	mov	r6, r0
 800281a:	4620      	mov	r0, r4
 800281c:	f000 fb0e 	bl	8002e3c <__multiply>
 8002820:	9904      	ldr	r1, [sp, #16]
 8002822:	9008      	str	r0, [sp, #32]
 8002824:	4620      	mov	r0, r4
 8002826:	f000 fa60 	bl	8002cea <_Bfree>
 800282a:	9b08      	ldr	r3, [sp, #32]
 800282c:	9304      	str	r3, [sp, #16]
 800282e:	9b07      	ldr	r3, [sp, #28]
 8002830:	1bda      	subs	r2, r3, r7
 8002832:	d004      	beq.n	800283e <_dtoa_r+0x76e>
 8002834:	9904      	ldr	r1, [sp, #16]
 8002836:	4620      	mov	r0, r4
 8002838:	f000 fb96 	bl	8002f68 <__pow5mult>
 800283c:	9004      	str	r0, [sp, #16]
 800283e:	2101      	movs	r1, #1
 8002840:	4620      	mov	r0, r4
 8002842:	f000 faf2 	bl	8002e2a <__i2b>
 8002846:	9b0e      	ldr	r3, [sp, #56]	; 0x38
 8002848:	4607      	mov	r7, r0
 800284a:	2b00      	cmp	r3, #0
 800284c:	f000 81d0 	beq.w	8002bf0 <_dtoa_r+0xb20>
 8002850:	461a      	mov	r2, r3
 8002852:	4601      	mov	r1, r0
 8002854:	4620      	mov	r0, r4
 8002856:	f000 fb87 	bl	8002f68 <__pow5mult>
 800285a:	9b06      	ldr	r3, [sp, #24]
 800285c:	2b01      	cmp	r3, #1
 800285e:	4607      	mov	r7, r0
 8002860:	dc40      	bgt.n	80028e4 <_dtoa_r+0x814>
 8002862:	9b00      	ldr	r3, [sp, #0]
 8002864:	2b00      	cmp	r3, #0
 8002866:	d139      	bne.n	80028dc <_dtoa_r+0x80c>
 8002868:	9b01      	ldr	r3, [sp, #4]
 800286a:	f3c3 0313 	ubfx	r3, r3, #0, #20
 800286e:	2b00      	cmp	r3, #0
 8002870:	d136      	bne.n	80028e0 <_dtoa_r+0x810>
 8002872:	9b01      	ldr	r3, [sp, #4]
 8002874:	f023 4300 	bic.w	r3, r3, #2147483648	; 0x80000000
 8002878:	0d1b      	lsrs	r3, r3, #20
 800287a:	051b      	lsls	r3, r3, #20
 800287c:	b12b      	cbz	r3, 800288a <_dtoa_r+0x7ba>
 800287e:	9b05      	ldr	r3, [sp, #20]
 8002880:	3301      	adds	r3, #1
 8002882:	9305      	str	r3, [sp, #20]
 8002884:	f108 0801 	add.w	r8, r8, #1
 8002888:	2301      	movs	r3, #1
 800288a:	9307      	str	r3, [sp, #28]
 800288c:	9b0e      	ldr	r3, [sp, #56]	; 0x38
 800288e:	2b00      	cmp	r3, #0
 8002890:	d12a      	bne.n	80028e8 <_dtoa_r+0x818>
 8002892:	2001      	movs	r0, #1
 8002894:	e030      	b.n	80028f8 <_dtoa_r+0x828>
 8002896:	9b14      	ldr	r3, [sp, #80]	; 0x50
 8002898:	f1c3 0336 	rsb	r3, r3, #54	; 0x36
 800289c:	e795      	b.n	80027ca <_dtoa_r+0x6fa>
 800289e:	9b07      	ldr	r3, [sp, #28]
 80028a0:	f109 37ff 	add.w	r7, r9, #4294967295
 80028a4:	42bb      	cmp	r3, r7
 80028a6:	bfbf      	itttt	lt
 80028a8:	9b07      	ldrlt	r3, [sp, #28]
 80028aa:	9707      	strlt	r7, [sp, #28]
 80028ac:	1afa      	sublt	r2, r7, r3
 80028ae:	9b0e      	ldrlt	r3, [sp, #56]	; 0x38
 80028b0:	bfbb      	ittet	lt
 80028b2:	189b      	addlt	r3, r3, r2
 80028b4:	930e      	strlt	r3, [sp, #56]	; 0x38
 80028b6:	1bdf      	subge	r7, r3, r7
 80028b8:	2700      	movlt	r7, #0
 80028ba:	f1b9 0f00 	cmp.w	r9, #0
 80028be:	bfb5      	itete	lt
 80028c0:	9b05      	ldrlt	r3, [sp, #20]
 80028c2:	9d05      	ldrge	r5, [sp, #20]
 80028c4:	eba3 0509 	sublt.w	r5, r3, r9
 80028c8:	464b      	movge	r3, r9
 80028ca:	bfb8      	it	lt
 80028cc:	2300      	movlt	r3, #0
 80028ce:	e77e      	b.n	80027ce <_dtoa_r+0x6fe>
 80028d0:	9f07      	ldr	r7, [sp, #28]
 80028d2:	9d05      	ldr	r5, [sp, #20]
 80028d4:	9e0a      	ldr	r6, [sp, #40]	; 0x28
 80028d6:	e783      	b.n	80027e0 <_dtoa_r+0x710>
 80028d8:	9a07      	ldr	r2, [sp, #28]
 80028da:	e7ab      	b.n	8002834 <_dtoa_r+0x764>
 80028dc:	2300      	movs	r3, #0
 80028de:	e7d4      	b.n	800288a <_dtoa_r+0x7ba>
 80028e0:	9b00      	ldr	r3, [sp, #0]
 80028e2:	e7d2      	b.n	800288a <_dtoa_r+0x7ba>
 80028e4:	2300      	movs	r3, #0
 80028e6:	9307      	str	r3, [sp, #28]
 80028e8:	693b      	ldr	r3, [r7, #16]
 80028ea:	eb07 0383 	add.w	r3, r7, r3, lsl #2
 80028ee:	6918      	ldr	r0, [r3, #16]
 80028f0:	f000 fa4d 	bl	8002d8e <__hi0bits>
 80028f4:	f1c0 0020 	rsb	r0, r0, #32
 80028f8:	4440      	add	r0, r8
 80028fa:	f010 001f 	ands.w	r0, r0, #31
 80028fe:	d047      	beq.n	8002990 <_dtoa_r+0x8c0>
 8002900:	f1c0 0320 	rsb	r3, r0, #32
 8002904:	2b04      	cmp	r3, #4
 8002906:	dd3b      	ble.n	8002980 <_dtoa_r+0x8b0>
 8002908:	9b05      	ldr	r3, [sp, #20]
 800290a:	f1c0 001c 	rsb	r0, r0, #28
 800290e:	4403      	add	r3, r0
 8002910:	9305      	str	r3, [sp, #20]
 8002912:	4405      	add	r5, r0
 8002914:	4480      	add	r8, r0
 8002916:	9b05      	ldr	r3, [sp, #20]
 8002918:	2b00      	cmp	r3, #0
 800291a:	dd05      	ble.n	8002928 <_dtoa_r+0x858>
 800291c:	461a      	mov	r2, r3
 800291e:	9904      	ldr	r1, [sp, #16]
 8002920:	4620      	mov	r0, r4
 8002922:	f000 fb6f 	bl	8003004 <__lshift>
 8002926:	9004      	str	r0, [sp, #16]
 8002928:	f1b8 0f00 	cmp.w	r8, #0
 800292c:	dd05      	ble.n	800293a <_dtoa_r+0x86a>
 800292e:	4639      	mov	r1, r7
 8002930:	4642      	mov	r2, r8
 8002932:	4620      	mov	r0, r4
 8002934:	f000 fb66 	bl	8003004 <__lshift>
 8002938:	4607      	mov	r7, r0
 800293a:	9b0f      	ldr	r3, [sp, #60]	; 0x3c
 800293c:	b353      	cbz	r3, 8002994 <_dtoa_r+0x8c4>
 800293e:	4639      	mov	r1, r7
 8002940:	9804      	ldr	r0, [sp, #16]
 8002942:	f000 fbb3 	bl	80030ac <__mcmp>
 8002946:	2800      	cmp	r0, #0
 8002948:	da24      	bge.n	8002994 <_dtoa_r+0x8c4>
 800294a:	2300      	movs	r3, #0
 800294c:	220a      	movs	r2, #10
 800294e:	9904      	ldr	r1, [sp, #16]
 8002950:	4620      	mov	r0, r4
 8002952:	f000 f9e1 	bl	8002d18 <__multadd>
 8002956:	9b0a      	ldr	r3, [sp, #40]	; 0x28
 8002958:	9004      	str	r0, [sp, #16]
 800295a:	f10a 3aff 	add.w	sl, sl, #4294967295
 800295e:	2b00      	cmp	r3, #0
 8002960:	f000 814d 	beq.w	8002bfe <_dtoa_r+0xb2e>
 8002964:	2300      	movs	r3, #0
 8002966:	4631      	mov	r1, r6
 8002968:	220a      	movs	r2, #10
 800296a:	4620      	mov	r0, r4
 800296c:	f000 f9d4 	bl	8002d18 <__multadd>
 8002970:	9b02      	ldr	r3, [sp, #8]
 8002972:	2b00      	cmp	r3, #0
 8002974:	4606      	mov	r6, r0
 8002976:	dc4f      	bgt.n	8002a18 <_dtoa_r+0x948>
 8002978:	9b06      	ldr	r3, [sp, #24]
 800297a:	2b02      	cmp	r3, #2
 800297c:	dd4c      	ble.n	8002a18 <_dtoa_r+0x948>
 800297e:	e011      	b.n	80029a4 <_dtoa_r+0x8d4>
 8002980:	d0c9      	beq.n	8002916 <_dtoa_r+0x846>
 8002982:	9a05      	ldr	r2, [sp, #20]
 8002984:	331c      	adds	r3, #28
 8002986:	441a      	add	r2, r3
 8002988:	9205      	str	r2, [sp, #20]
 800298a:	441d      	add	r5, r3
 800298c:	4498      	add	r8, r3
 800298e:	e7c2      	b.n	8002916 <_dtoa_r+0x846>
 8002990:	4603      	mov	r3, r0
 8002992:	e7f6      	b.n	8002982 <_dtoa_r+0x8b2>
 8002994:	f1b9 0f00 	cmp.w	r9, #0
 8002998:	dc38      	bgt.n	8002a0c <_dtoa_r+0x93c>
 800299a:	9b06      	ldr	r3, [sp, #24]
 800299c:	2b02      	cmp	r3, #2
 800299e:	dd35      	ble.n	8002a0c <_dtoa_r+0x93c>
 80029a0:	f8cd 9008 	str.w	r9, [sp, #8]
 80029a4:	9b02      	ldr	r3, [sp, #8]
 80029a6:	b963      	cbnz	r3, 80029c2 <_dtoa_r+0x8f2>
 80029a8:	4639      	mov	r1, r7
 80029aa:	2205      	movs	r2, #5
 80029ac:	4620      	mov	r0, r4
 80029ae:	f000 f9b3 	bl	8002d18 <__multadd>
 80029b2:	4601      	mov	r1, r0
 80029b4:	4607      	mov	r7, r0
 80029b6:	9804      	ldr	r0, [sp, #16]
 80029b8:	f000 fb78 	bl	80030ac <__mcmp>
 80029bc:	2800      	cmp	r0, #0
 80029be:	f73f adcc 	bgt.w	800255a <_dtoa_r+0x48a>
 80029c2:	9b0b      	ldr	r3, [sp, #44]	; 0x2c
 80029c4:	465d      	mov	r5, fp
 80029c6:	ea6f 0a03 	mvn.w	sl, r3
 80029ca:	f04f 0900 	mov.w	r9, #0
 80029ce:	4639      	mov	r1, r7
 80029d0:	4620      	mov	r0, r4
 80029d2:	f000 f98a 	bl	8002cea <_Bfree>
 80029d6:	2e00      	cmp	r6, #0
 80029d8:	f43f aeb7 	beq.w	800274a <_dtoa_r+0x67a>
 80029dc:	f1b9 0f00 	cmp.w	r9, #0
 80029e0:	d005      	beq.n	80029ee <_dtoa_r+0x91e>
 80029e2:	45b1      	cmp	r9, r6
 80029e4:	d003      	beq.n	80029ee <_dtoa_r+0x91e>
 80029e6:	4649      	mov	r1, r9
 80029e8:	4620      	mov	r0, r4
 80029ea:	f000 f97e 	bl	8002cea <_Bfree>
 80029ee:	4631      	mov	r1, r6
 80029f0:	4620      	mov	r0, r4
 80029f2:	f000 f97a 	bl	8002cea <_Bfree>
 80029f6:	e6a8      	b.n	800274a <_dtoa_r+0x67a>
 80029f8:	2700      	movs	r7, #0
 80029fa:	463e      	mov	r6, r7
 80029fc:	e7e1      	b.n	80029c2 <_dtoa_r+0x8f2>
 80029fe:	f8dd a020 	ldr.w	sl, [sp, #32]
 8002a02:	463e      	mov	r6, r7
 8002a04:	e5a9      	b.n	800255a <_dtoa_r+0x48a>
 8002a06:	bf00      	nop
 8002a08:	40240000 	.word	0x40240000
 8002a0c:	9b0a      	ldr	r3, [sp, #40]	; 0x28
 8002a0e:	f8cd 9008 	str.w	r9, [sp, #8]
 8002a12:	2b00      	cmp	r3, #0
 8002a14:	f000 80fa 	beq.w	8002c0c <_dtoa_r+0xb3c>
 8002a18:	2d00      	cmp	r5, #0
 8002a1a:	dd05      	ble.n	8002a28 <_dtoa_r+0x958>
 8002a1c:	4631      	mov	r1, r6
 8002a1e:	462a      	mov	r2, r5
 8002a20:	4620      	mov	r0, r4
 8002a22:	f000 faef 	bl	8003004 <__lshift>
 8002a26:	4606      	mov	r6, r0
 8002a28:	9b07      	ldr	r3, [sp, #28]
 8002a2a:	2b00      	cmp	r3, #0
 8002a2c:	d04c      	beq.n	8002ac8 <_dtoa_r+0x9f8>
 8002a2e:	6871      	ldr	r1, [r6, #4]
 8002a30:	4620      	mov	r0, r4
 8002a32:	f000 f926 	bl	8002c82 <_Balloc>
 8002a36:	6932      	ldr	r2, [r6, #16]
 8002a38:	3202      	adds	r2, #2
 8002a3a:	4605      	mov	r5, r0
 8002a3c:	0092      	lsls	r2, r2, #2
 8002a3e:	f106 010c 	add.w	r1, r6, #12
 8002a42:	300c      	adds	r0, #12
 8002a44:	f000 f912 	bl	8002c6c <memcpy>
 8002a48:	2201      	movs	r2, #1
 8002a4a:	4629      	mov	r1, r5
 8002a4c:	4620      	mov	r0, r4
 8002a4e:	f000 fad9 	bl	8003004 <__lshift>
 8002a52:	9b00      	ldr	r3, [sp, #0]
 8002a54:	f8cd b014 	str.w	fp, [sp, #20]
 8002a58:	f003 0301 	and.w	r3, r3, #1
 8002a5c:	46b1      	mov	r9, r6
 8002a5e:	9307      	str	r3, [sp, #28]
 8002a60:	4606      	mov	r6, r0
 8002a62:	4639      	mov	r1, r7
 8002a64:	9804      	ldr	r0, [sp, #16]
 8002a66:	f7ff faa5 	bl	8001fb4 <quorem>
 8002a6a:	4649      	mov	r1, r9
 8002a6c:	4605      	mov	r5, r0
 8002a6e:	f100 0830 	add.w	r8, r0, #48	; 0x30
 8002a72:	9804      	ldr	r0, [sp, #16]
 8002a74:	f000 fb1a 	bl	80030ac <__mcmp>
 8002a78:	4632      	mov	r2, r6
 8002a7a:	9000      	str	r0, [sp, #0]
 8002a7c:	4639      	mov	r1, r7
 8002a7e:	4620      	mov	r0, r4
 8002a80:	f000 fb2e 	bl	80030e0 <__mdiff>
 8002a84:	68c3      	ldr	r3, [r0, #12]
 8002a86:	4602      	mov	r2, r0
 8002a88:	bb03      	cbnz	r3, 8002acc <_dtoa_r+0x9fc>
 8002a8a:	4601      	mov	r1, r0
 8002a8c:	9008      	str	r0, [sp, #32]
 8002a8e:	9804      	ldr	r0, [sp, #16]
 8002a90:	f000 fb0c 	bl	80030ac <__mcmp>
 8002a94:	9a08      	ldr	r2, [sp, #32]
 8002a96:	4603      	mov	r3, r0
 8002a98:	4611      	mov	r1, r2
 8002a9a:	4620      	mov	r0, r4
 8002a9c:	9308      	str	r3, [sp, #32]
 8002a9e:	f000 f924 	bl	8002cea <_Bfree>
 8002aa2:	9b08      	ldr	r3, [sp, #32]
 8002aa4:	b9a3      	cbnz	r3, 8002ad0 <_dtoa_r+0xa00>
 8002aa6:	9a06      	ldr	r2, [sp, #24]
 8002aa8:	b992      	cbnz	r2, 8002ad0 <_dtoa_r+0xa00>
 8002aaa:	9a07      	ldr	r2, [sp, #28]
 8002aac:	b982      	cbnz	r2, 8002ad0 <_dtoa_r+0xa00>
 8002aae:	f1b8 0f39 	cmp.w	r8, #57	; 0x39
 8002ab2:	d029      	beq.n	8002b08 <_dtoa_r+0xa38>
 8002ab4:	9b00      	ldr	r3, [sp, #0]
 8002ab6:	2b00      	cmp	r3, #0
 8002ab8:	dd01      	ble.n	8002abe <_dtoa_r+0x9ee>
 8002aba:	f105 0831 	add.w	r8, r5, #49	; 0x31
 8002abe:	9b05      	ldr	r3, [sp, #20]
 8002ac0:	1c5d      	adds	r5, r3, #1
 8002ac2:	f883 8000 	strb.w	r8, [r3]
 8002ac6:	e782      	b.n	80029ce <_dtoa_r+0x8fe>
 8002ac8:	4630      	mov	r0, r6
 8002aca:	e7c2      	b.n	8002a52 <_dtoa_r+0x982>
 8002acc:	2301      	movs	r3, #1
 8002ace:	e7e3      	b.n	8002a98 <_dtoa_r+0x9c8>
 8002ad0:	9a00      	ldr	r2, [sp, #0]
 8002ad2:	2a00      	cmp	r2, #0
 8002ad4:	db04      	blt.n	8002ae0 <_dtoa_r+0xa10>
 8002ad6:	d125      	bne.n	8002b24 <_dtoa_r+0xa54>
 8002ad8:	9a06      	ldr	r2, [sp, #24]
 8002ada:	bb1a      	cbnz	r2, 8002b24 <_dtoa_r+0xa54>
 8002adc:	9a07      	ldr	r2, [sp, #28]
 8002ade:	bb0a      	cbnz	r2, 8002b24 <_dtoa_r+0xa54>
 8002ae0:	2b00      	cmp	r3, #0
 8002ae2:	ddec      	ble.n	8002abe <_dtoa_r+0x9ee>
 8002ae4:	2201      	movs	r2, #1
 8002ae6:	9904      	ldr	r1, [sp, #16]
 8002ae8:	4620      	mov	r0, r4
 8002aea:	f000 fa8b 	bl	8003004 <__lshift>
 8002aee:	4639      	mov	r1, r7
 8002af0:	9004      	str	r0, [sp, #16]
 8002af2:	f000 fadb 	bl	80030ac <__mcmp>
 8002af6:	2800      	cmp	r0, #0
 8002af8:	dc03      	bgt.n	8002b02 <_dtoa_r+0xa32>
 8002afa:	d1e0      	bne.n	8002abe <_dtoa_r+0x9ee>
 8002afc:	f018 0f01 	tst.w	r8, #1
 8002b00:	d0dd      	beq.n	8002abe <_dtoa_r+0x9ee>
 8002b02:	f1b8 0f39 	cmp.w	r8, #57	; 0x39
 8002b06:	d1d8      	bne.n	8002aba <_dtoa_r+0x9ea>
 8002b08:	9b05      	ldr	r3, [sp, #20]
 8002b0a:	9a05      	ldr	r2, [sp, #20]
 8002b0c:	1c5d      	adds	r5, r3, #1
 8002b0e:	2339      	movs	r3, #57	; 0x39
 8002b10:	7013      	strb	r3, [r2, #0]
 8002b12:	f815 3c01 	ldrb.w	r3, [r5, #-1]
 8002b16:	2b39      	cmp	r3, #57	; 0x39
 8002b18:	f105 32ff 	add.w	r2, r5, #4294967295
 8002b1c:	d04f      	beq.n	8002bbe <_dtoa_r+0xaee>
 8002b1e:	3301      	adds	r3, #1
 8002b20:	7013      	strb	r3, [r2, #0]
 8002b22:	e754      	b.n	80029ce <_dtoa_r+0x8fe>
 8002b24:	9a05      	ldr	r2, [sp, #20]
 8002b26:	2b00      	cmp	r3, #0
 8002b28:	f102 0501 	add.w	r5, r2, #1
 8002b2c:	dd06      	ble.n	8002b3c <_dtoa_r+0xa6c>
 8002b2e:	f1b8 0f39 	cmp.w	r8, #57	; 0x39
 8002b32:	d0e9      	beq.n	8002b08 <_dtoa_r+0xa38>
 8002b34:	f108 0801 	add.w	r8, r8, #1
 8002b38:	9b05      	ldr	r3, [sp, #20]
 8002b3a:	e7c2      	b.n	8002ac2 <_dtoa_r+0x9f2>
 8002b3c:	9a02      	ldr	r2, [sp, #8]
 8002b3e:	f805 8c01 	strb.w	r8, [r5, #-1]
 8002b42:	eba5 030b 	sub.w	r3, r5, fp
 8002b46:	4293      	cmp	r3, r2
 8002b48:	d021      	beq.n	8002b8e <_dtoa_r+0xabe>
 8002b4a:	2300      	movs	r3, #0
 8002b4c:	220a      	movs	r2, #10
 8002b4e:	9904      	ldr	r1, [sp, #16]
 8002b50:	4620      	mov	r0, r4
 8002b52:	f000 f8e1 	bl	8002d18 <__multadd>
 8002b56:	45b1      	cmp	r9, r6
 8002b58:	9004      	str	r0, [sp, #16]
 8002b5a:	f04f 0300 	mov.w	r3, #0
 8002b5e:	f04f 020a 	mov.w	r2, #10
 8002b62:	4649      	mov	r1, r9
 8002b64:	4620      	mov	r0, r4
 8002b66:	d105      	bne.n	8002b74 <_dtoa_r+0xaa4>
 8002b68:	f000 f8d6 	bl	8002d18 <__multadd>
 8002b6c:	4681      	mov	r9, r0
 8002b6e:	4606      	mov	r6, r0
 8002b70:	9505      	str	r5, [sp, #20]
 8002b72:	e776      	b.n	8002a62 <_dtoa_r+0x992>
 8002b74:	f000 f8d0 	bl	8002d18 <__multadd>
 8002b78:	4631      	mov	r1, r6
 8002b7a:	4681      	mov	r9, r0
 8002b7c:	2300      	movs	r3, #0
 8002b7e:	220a      	movs	r2, #10
 8002b80:	4620      	mov	r0, r4
 8002b82:	f000 f8c9 	bl	8002d18 <__multadd>
 8002b86:	4606      	mov	r6, r0
 8002b88:	e7f2      	b.n	8002b70 <_dtoa_r+0xaa0>
 8002b8a:	f04f 0900 	mov.w	r9, #0
 8002b8e:	2201      	movs	r2, #1
 8002b90:	9904      	ldr	r1, [sp, #16]
 8002b92:	4620      	mov	r0, r4
 8002b94:	f000 fa36 	bl	8003004 <__lshift>
 8002b98:	4639      	mov	r1, r7
 8002b9a:	9004      	str	r0, [sp, #16]
 8002b9c:	f000 fa86 	bl	80030ac <__mcmp>
 8002ba0:	2800      	cmp	r0, #0
 8002ba2:	dcb6      	bgt.n	8002b12 <_dtoa_r+0xa42>
 8002ba4:	d102      	bne.n	8002bac <_dtoa_r+0xadc>
 8002ba6:	f018 0f01 	tst.w	r8, #1
 8002baa:	d1b2      	bne.n	8002b12 <_dtoa_r+0xa42>
 8002bac:	f815 3c01 	ldrb.w	r3, [r5, #-1]
 8002bb0:	2b30      	cmp	r3, #48	; 0x30
 8002bb2:	f105 32ff 	add.w	r2, r5, #4294967295
 8002bb6:	f47f af0a 	bne.w	80029ce <_dtoa_r+0x8fe>
 8002bba:	4615      	mov	r5, r2
 8002bbc:	e7f6      	b.n	8002bac <_dtoa_r+0xadc>
 8002bbe:	4593      	cmp	fp, r2
 8002bc0:	d105      	bne.n	8002bce <_dtoa_r+0xafe>
 8002bc2:	2331      	movs	r3, #49	; 0x31
 8002bc4:	f10a 0a01 	add.w	sl, sl, #1
 8002bc8:	f88b 3000 	strb.w	r3, [fp]
 8002bcc:	e6ff      	b.n	80029ce <_dtoa_r+0x8fe>
 8002bce:	4615      	mov	r5, r2
 8002bd0:	e79f      	b.n	8002b12 <_dtoa_r+0xa42>
 8002bd2:	f8df b064 	ldr.w	fp, [pc, #100]	; 8002c38 <_dtoa_r+0xb68>
 8002bd6:	e007      	b.n	8002be8 <_dtoa_r+0xb18>
 8002bd8:	9b21      	ldr	r3, [sp, #132]	; 0x84
 8002bda:	f8df b060 	ldr.w	fp, [pc, #96]	; 8002c3c <_dtoa_r+0xb6c>
 8002bde:	b11b      	cbz	r3, 8002be8 <_dtoa_r+0xb18>
 8002be0:	f10b 0308 	add.w	r3, fp, #8
 8002be4:	9a21      	ldr	r2, [sp, #132]	; 0x84
 8002be6:	6013      	str	r3, [r2, #0]
 8002be8:	4658      	mov	r0, fp
 8002bea:	b017      	add	sp, #92	; 0x5c
 8002bec:	e8bd 8ff0 	ldmia.w	sp!, {r4, r5, r6, r7, r8, r9, sl, fp, pc}
 8002bf0:	9b06      	ldr	r3, [sp, #24]
 8002bf2:	2b01      	cmp	r3, #1
 8002bf4:	f77f ae35 	ble.w	8002862 <_dtoa_r+0x792>
 8002bf8:	9b0e      	ldr	r3, [sp, #56]	; 0x38
 8002bfa:	9307      	str	r3, [sp, #28]
 8002bfc:	e649      	b.n	8002892 <_dtoa_r+0x7c2>
 8002bfe:	9b02      	ldr	r3, [sp, #8]
 8002c00:	2b00      	cmp	r3, #0
 8002c02:	dc03      	bgt.n	8002c0c <_dtoa_r+0xb3c>
 8002c04:	9b06      	ldr	r3, [sp, #24]
 8002c06:	2b02      	cmp	r3, #2
 8002c08:	f73f aecc 	bgt.w	80029a4 <_dtoa_r+0x8d4>
 8002c0c:	465d      	mov	r5, fp
 8002c0e:	4639      	mov	r1, r7
 8002c10:	9804      	ldr	r0, [sp, #16]
 8002c12:	f7ff f9cf 	bl	8001fb4 <quorem>
 8002c16:	f100 0830 	add.w	r8, r0, #48	; 0x30
 8002c1a:	f805 8b01 	strb.w	r8, [r5], #1
 8002c1e:	9a02      	ldr	r2, [sp, #8]
 8002c20:	eba5 030b 	sub.w	r3, r5, fp
 8002c24:	429a      	cmp	r2, r3
 8002c26:	ddb0      	ble.n	8002b8a <_dtoa_r+0xaba>
 8002c28:	2300      	movs	r3, #0
 8002c2a:	220a      	movs	r2, #10
 8002c2c:	9904      	ldr	r1, [sp, #16]
 8002c2e:	4620      	mov	r0, r4
 8002c30:	f000 f872 	bl	8002d18 <__multadd>
 8002c34:	9004      	str	r0, [sp, #16]
 8002c36:	e7ea      	b.n	8002c0e <_dtoa_r+0xb3e>
 8002c38:	0800379f 	.word	0x0800379f
 8002c3c:	080037c3 	.word	0x080037c3

08002c40 <_localeconv_r>:
 8002c40:	4b04      	ldr	r3, [pc, #16]	; (8002c54 <_localeconv_r+0x14>)
 8002c42:	681b      	ldr	r3, [r3, #0]
 8002c44:	6a18      	ldr	r0, [r3, #32]
 8002c46:	4b04      	ldr	r3, [pc, #16]	; (8002c58 <_localeconv_r+0x18>)
 8002c48:	2800      	cmp	r0, #0
 8002c4a:	bf08      	it	eq
 8002c4c:	4618      	moveq	r0, r3
 8002c4e:	30f0      	adds	r0, #240	; 0xf0
 8002c50:	4770      	bx	lr
 8002c52:	bf00      	nop
 8002c54:	20000004 	.word	0x20000004
 8002c58:	20000068 	.word	0x20000068

08002c5c <malloc>:
 8002c5c:	4b02      	ldr	r3, [pc, #8]	; (8002c68 <malloc+0xc>)
 8002c5e:	4601      	mov	r1, r0
 8002c60:	6818      	ldr	r0, [r3, #0]
 8002c62:	f000 bb45 	b.w	80032f0 <_malloc_r>
 8002c66:	bf00      	nop
 8002c68:	20000004 	.word	0x20000004

08002c6c <memcpy>:
 8002c6c:	b510      	push	{r4, lr}
 8002c6e:	1e43      	subs	r3, r0, #1
 8002c70:	440a      	add	r2, r1
 8002c72:	4291      	cmp	r1, r2
 8002c74:	d100      	bne.n	8002c78 <memcpy+0xc>
 8002c76:	bd10      	pop	{r4, pc}
 8002c78:	f811 4b01 	ldrb.w	r4, [r1], #1
 8002c7c:	f803 4f01 	strb.w	r4, [r3, #1]!
 8002c80:	e7f7      	b.n	8002c72 <memcpy+0x6>

08002c82 <_Balloc>:
 8002c82:	b570      	push	{r4, r5, r6, lr}
 8002c84:	6a45      	ldr	r5, [r0, #36]	; 0x24
 8002c86:	4604      	mov	r4, r0
 8002c88:	460e      	mov	r6, r1
 8002c8a:	b93d      	cbnz	r5, 8002c9c <_Balloc+0x1a>
 8002c8c:	2010      	movs	r0, #16
 8002c8e:	f7ff ffe5 	bl	8002c5c <malloc>
 8002c92:	6260      	str	r0, [r4, #36]	; 0x24
 8002c94:	e9c0 5501 	strd	r5, r5, [r0, #4]
 8002c98:	6005      	str	r5, [r0, #0]
 8002c9a:	60c5      	str	r5, [r0, #12]
 8002c9c:	6a65      	ldr	r5, [r4, #36]	; 0x24
 8002c9e:	68eb      	ldr	r3, [r5, #12]
 8002ca0:	b183      	cbz	r3, 8002cc4 <_Balloc+0x42>
 8002ca2:	6a63      	ldr	r3, [r4, #36]	; 0x24
 8002ca4:	68db      	ldr	r3, [r3, #12]
 8002ca6:	f853 0026 	ldr.w	r0, [r3, r6, lsl #2]
 8002caa:	b9b8      	cbnz	r0, 8002cdc <_Balloc+0x5a>
 8002cac:	2101      	movs	r1, #1
 8002cae:	fa01 f506 	lsl.w	r5, r1, r6
 8002cb2:	1d6a      	adds	r2, r5, #5
 8002cb4:	0092      	lsls	r2, r2, #2
 8002cb6:	4620      	mov	r0, r4
 8002cb8:	f000 fabe 	bl	8003238 <_calloc_r>
 8002cbc:	b160      	cbz	r0, 8002cd8 <_Balloc+0x56>
 8002cbe:	e9c0 6501 	strd	r6, r5, [r0, #4]
 8002cc2:	e00e      	b.n	8002ce2 <_Balloc+0x60>
 8002cc4:	2221      	movs	r2, #33	; 0x21
 8002cc6:	2104      	movs	r1, #4
 8002cc8:	4620      	mov	r0, r4
 8002cca:	f000 fab5 	bl	8003238 <_calloc_r>
 8002cce:	6a63      	ldr	r3, [r4, #36]	; 0x24
 8002cd0:	60e8      	str	r0, [r5, #12]
 8002cd2:	68db      	ldr	r3, [r3, #12]
 8002cd4:	2b00      	cmp	r3, #0
 8002cd6:	d1e4      	bne.n	8002ca2 <_Balloc+0x20>
 8002cd8:	2000      	movs	r0, #0
 8002cda:	bd70      	pop	{r4, r5, r6, pc}
 8002cdc:	6802      	ldr	r2, [r0, #0]
 8002cde:	f843 2026 	str.w	r2, [r3, r6, lsl #2]
 8002ce2:	2300      	movs	r3, #0
 8002ce4:	e9c0 3303 	strd	r3, r3, [r0, #12]
 8002ce8:	e7f7      	b.n	8002cda <_Balloc+0x58>

08002cea <_Bfree>:
 8002cea:	b570      	push	{r4, r5, r6, lr}
 8002cec:	6a44      	ldr	r4, [r0, #36]	; 0x24
 8002cee:	4606      	mov	r6, r0
 8002cf0:	460d      	mov	r5, r1
 8002cf2:	b93c      	cbnz	r4, 8002d04 <_Bfree+0x1a>
 8002cf4:	2010      	movs	r0, #16
 8002cf6:	f7ff ffb1 	bl	8002c5c <malloc>
 8002cfa:	6270      	str	r0, [r6, #36]	; 0x24
 8002cfc:	e9c0 4401 	strd	r4, r4, [r0, #4]
 8002d00:	6004      	str	r4, [r0, #0]
 8002d02:	60c4      	str	r4, [r0, #12]
 8002d04:	b13d      	cbz	r5, 8002d16 <_Bfree+0x2c>
 8002d06:	6a73      	ldr	r3, [r6, #36]	; 0x24
 8002d08:	686a      	ldr	r2, [r5, #4]
 8002d0a:	68db      	ldr	r3, [r3, #12]
 8002d0c:	f853 1022 	ldr.w	r1, [r3, r2, lsl #2]
 8002d10:	6029      	str	r1, [r5, #0]
 8002d12:	f843 5022 	str.w	r5, [r3, r2, lsl #2]
 8002d16:	bd70      	pop	{r4, r5, r6, pc}

08002d18 <__multadd>:
 8002d18:	e92d 41f0 	stmdb	sp!, {r4, r5, r6, r7, r8, lr}
 8002d1c:	690d      	ldr	r5, [r1, #16]
 8002d1e:	461f      	mov	r7, r3
 8002d20:	4606      	mov	r6, r0
 8002d22:	460c      	mov	r4, r1
 8002d24:	f101 0c14 	add.w	ip, r1, #20
 8002d28:	2300      	movs	r3, #0
 8002d2a:	f8dc 0000 	ldr.w	r0, [ip]
 8002d2e:	b281      	uxth	r1, r0
 8002d30:	fb02 7101 	mla	r1, r2, r1, r7
 8002d34:	0c0f      	lsrs	r7, r1, #16
 8002d36:	0c00      	lsrs	r0, r0, #16
 8002d38:	fb02 7000 	mla	r0, r2, r0, r7
 8002d3c:	b289      	uxth	r1, r1
 8002d3e:	3301      	adds	r3, #1
 8002d40:	eb01 4100 	add.w	r1, r1, r0, lsl #16
 8002d44:	429d      	cmp	r5, r3
 8002d46:	ea4f 4710 	mov.w	r7, r0, lsr #16
 8002d4a:	f84c 1b04 	str.w	r1, [ip], #4
 8002d4e:	dcec      	bgt.n	8002d2a <__multadd+0x12>
 8002d50:	b1d7      	cbz	r7, 8002d88 <__multadd+0x70>
 8002d52:	68a3      	ldr	r3, [r4, #8]
 8002d54:	42ab      	cmp	r3, r5
 8002d56:	dc12      	bgt.n	8002d7e <__multadd+0x66>
 8002d58:	6861      	ldr	r1, [r4, #4]
 8002d5a:	4630      	mov	r0, r6
 8002d5c:	3101      	adds	r1, #1
 8002d5e:	f7ff ff90 	bl	8002c82 <_Balloc>
 8002d62:	6922      	ldr	r2, [r4, #16]
 8002d64:	3202      	adds	r2, #2
 8002d66:	f104 010c 	add.w	r1, r4, #12
 8002d6a:	4680      	mov	r8, r0
 8002d6c:	0092      	lsls	r2, r2, #2
 8002d6e:	300c      	adds	r0, #12
 8002d70:	f7ff ff7c 	bl	8002c6c <memcpy>
 8002d74:	4621      	mov	r1, r4
 8002d76:	4630      	mov	r0, r6
 8002d78:	f7ff ffb7 	bl	8002cea <_Bfree>
 8002d7c:	4644      	mov	r4, r8
 8002d7e:	eb04 0385 	add.w	r3, r4, r5, lsl #2
 8002d82:	3501      	adds	r5, #1
 8002d84:	615f      	str	r7, [r3, #20]
 8002d86:	6125      	str	r5, [r4, #16]
 8002d88:	4620      	mov	r0, r4
 8002d8a:	e8bd 81f0 	ldmia.w	sp!, {r4, r5, r6, r7, r8, pc}

08002d8e <__hi0bits>:
 8002d8e:	0c02      	lsrs	r2, r0, #16
 8002d90:	0412      	lsls	r2, r2, #16
 8002d92:	4603      	mov	r3, r0
 8002d94:	b9b2      	cbnz	r2, 8002dc4 <__hi0bits+0x36>
 8002d96:	0403      	lsls	r3, r0, #16
 8002d98:	2010      	movs	r0, #16
 8002d9a:	f013 4f7f 	tst.w	r3, #4278190080	; 0xff000000
 8002d9e:	bf04      	itt	eq
 8002da0:	021b      	lsleq	r3, r3, #8
 8002da2:	3008      	addeq	r0, #8
 8002da4:	f013 4f70 	tst.w	r3, #4026531840	; 0xf0000000
 8002da8:	bf04      	itt	eq
 8002daa:	011b      	lsleq	r3, r3, #4
 8002dac:	3004      	addeq	r0, #4
 8002dae:	f013 4f40 	tst.w	r3, #3221225472	; 0xc0000000
 8002db2:	bf04      	itt	eq
 8002db4:	009b      	lsleq	r3, r3, #2
 8002db6:	3002      	addeq	r0, #2
 8002db8:	2b00      	cmp	r3, #0
 8002dba:	db06      	blt.n	8002dca <__hi0bits+0x3c>
 8002dbc:	005b      	lsls	r3, r3, #1
 8002dbe:	d503      	bpl.n	8002dc8 <__hi0bits+0x3a>
 8002dc0:	3001      	adds	r0, #1
 8002dc2:	4770      	bx	lr
 8002dc4:	2000      	movs	r0, #0
 8002dc6:	e7e8      	b.n	8002d9a <__hi0bits+0xc>
 8002dc8:	2020      	movs	r0, #32
 8002dca:	4770      	bx	lr

08002dcc <__lo0bits>:
 8002dcc:	6803      	ldr	r3, [r0, #0]
 8002dce:	f013 0207 	ands.w	r2, r3, #7
 8002dd2:	4601      	mov	r1, r0
 8002dd4:	d00b      	beq.n	8002dee <__lo0bits+0x22>
 8002dd6:	07da      	lsls	r2, r3, #31
 8002dd8:	d423      	bmi.n	8002e22 <__lo0bits+0x56>
 8002dda:	0798      	lsls	r0, r3, #30
 8002ddc:	bf49      	itett	mi
 8002dde:	085b      	lsrmi	r3, r3, #1
 8002de0:	089b      	lsrpl	r3, r3, #2
 8002de2:	2001      	movmi	r0, #1
 8002de4:	600b      	strmi	r3, [r1, #0]
 8002de6:	bf5c      	itt	pl
 8002de8:	600b      	strpl	r3, [r1, #0]
 8002dea:	2002      	movpl	r0, #2
 8002dec:	4770      	bx	lr
 8002dee:	b298      	uxth	r0, r3
 8002df0:	b9a8      	cbnz	r0, 8002e1e <__lo0bits+0x52>
 8002df2:	0c1b      	lsrs	r3, r3, #16
 8002df4:	2010      	movs	r0, #16
 8002df6:	f013 0fff 	tst.w	r3, #255	; 0xff
 8002dfa:	bf04      	itt	eq
 8002dfc:	0a1b      	lsreq	r3, r3, #8
 8002dfe:	3008      	addeq	r0, #8
 8002e00:	071a      	lsls	r2, r3, #28
 8002e02:	bf04      	itt	eq
 8002e04:	091b      	lsreq	r3, r3, #4
 8002e06:	3004      	addeq	r0, #4
 8002e08:	079a      	lsls	r2, r3, #30
 8002e0a:	bf04      	itt	eq
 8002e0c:	089b      	lsreq	r3, r3, #2
 8002e0e:	3002      	addeq	r0, #2
 8002e10:	07da      	lsls	r2, r3, #31
 8002e12:	d402      	bmi.n	8002e1a <__lo0bits+0x4e>
 8002e14:	085b      	lsrs	r3, r3, #1
 8002e16:	d006      	beq.n	8002e26 <__lo0bits+0x5a>
 8002e18:	3001      	adds	r0, #1
 8002e1a:	600b      	str	r3, [r1, #0]
 8002e1c:	4770      	bx	lr
 8002e1e:	4610      	mov	r0, r2
 8002e20:	e7e9      	b.n	8002df6 <__lo0bits+0x2a>
 8002e22:	2000      	movs	r0, #0
 8002e24:	4770      	bx	lr
 8002e26:	2020      	movs	r0, #32
 8002e28:	4770      	bx	lr

08002e2a <__i2b>:
 8002e2a:	b510      	push	{r4, lr}
 8002e2c:	460c      	mov	r4, r1
 8002e2e:	2101      	movs	r1, #1
 8002e30:	f7ff ff27 	bl	8002c82 <_Balloc>
 8002e34:	2201      	movs	r2, #1
 8002e36:	6144      	str	r4, [r0, #20]
 8002e38:	6102      	str	r2, [r0, #16]
 8002e3a:	bd10      	pop	{r4, pc}

08002e3c <__multiply>:
 8002e3c:	e92d 4ff7 	stmdb	sp!, {r0, r1, r2, r4, r5, r6, r7, r8, r9, sl, fp, lr}
 8002e40:	4614      	mov	r4, r2
 8002e42:	690a      	ldr	r2, [r1, #16]
 8002e44:	6923      	ldr	r3, [r4, #16]
 8002e46:	429a      	cmp	r2, r3
 8002e48:	bfb8      	it	lt
 8002e4a:	460b      	movlt	r3, r1
 8002e4c:	4688      	mov	r8, r1
 8002e4e:	bfbc      	itt	lt
 8002e50:	46a0      	movlt	r8, r4
 8002e52:	461c      	movlt	r4, r3
 8002e54:	f8d8 7010 	ldr.w	r7, [r8, #16]
 8002e58:	f8d4 9010 	ldr.w	r9, [r4, #16]
 8002e5c:	f8d8 3008 	ldr.w	r3, [r8, #8]
 8002e60:	f8d8 1004 	ldr.w	r1, [r8, #4]
 8002e64:	eb07 0609 	add.w	r6, r7, r9
 8002e68:	42b3      	cmp	r3, r6
 8002e6a:	bfb8      	it	lt
 8002e6c:	3101      	addlt	r1, #1
 8002e6e:	f7ff ff08 	bl	8002c82 <_Balloc>
 8002e72:	f100 0514 	add.w	r5, r0, #20
 8002e76:	eb05 0e86 	add.w	lr, r5, r6, lsl #2
 8002e7a:	462b      	mov	r3, r5
 8002e7c:	2200      	movs	r2, #0
 8002e7e:	4573      	cmp	r3, lr
 8002e80:	d316      	bcc.n	8002eb0 <__multiply+0x74>
 8002e82:	f104 0214 	add.w	r2, r4, #20
 8002e86:	f108 0114 	add.w	r1, r8, #20
 8002e8a:	eb02 0389 	add.w	r3, r2, r9, lsl #2
 8002e8e:	eb01 0787 	add.w	r7, r1, r7, lsl #2
 8002e92:	9300      	str	r3, [sp, #0]
 8002e94:	9b00      	ldr	r3, [sp, #0]
 8002e96:	9201      	str	r2, [sp, #4]
 8002e98:	4293      	cmp	r3, r2
 8002e9a:	d80c      	bhi.n	8002eb6 <__multiply+0x7a>
 8002e9c:	2e00      	cmp	r6, #0
 8002e9e:	dd03      	ble.n	8002ea8 <__multiply+0x6c>
 8002ea0:	f85e 3d04 	ldr.w	r3, [lr, #-4]!
 8002ea4:	2b00      	cmp	r3, #0
 8002ea6:	d05d      	beq.n	8002f64 <__multiply+0x128>
 8002ea8:	6106      	str	r6, [r0, #16]
 8002eaa:	b003      	add	sp, #12
 8002eac:	e8bd 8ff0 	ldmia.w	sp!, {r4, r5, r6, r7, r8, r9, sl, fp, pc}
 8002eb0:	f843 2b04 	str.w	r2, [r3], #4
 8002eb4:	e7e3      	b.n	8002e7e <__multiply+0x42>
 8002eb6:	f8b2 b000 	ldrh.w	fp, [r2]
 8002eba:	f1bb 0f00 	cmp.w	fp, #0
 8002ebe:	d023      	beq.n	8002f08 <__multiply+0xcc>
 8002ec0:	4689      	mov	r9, r1
 8002ec2:	46ac      	mov	ip, r5
 8002ec4:	f04f 0800 	mov.w	r8, #0
 8002ec8:	f859 4b04 	ldr.w	r4, [r9], #4
 8002ecc:	f8dc a000 	ldr.w	sl, [ip]
 8002ed0:	b2a3      	uxth	r3, r4
 8002ed2:	fa1f fa8a 	uxth.w	sl, sl
 8002ed6:	fb0b a303 	mla	r3, fp, r3, sl
 8002eda:	ea4f 4a14 	mov.w	sl, r4, lsr #16
 8002ede:	f8dc 4000 	ldr.w	r4, [ip]
 8002ee2:	4443      	add	r3, r8
 8002ee4:	ea4f 4814 	mov.w	r8, r4, lsr #16
 8002ee8:	fb0b 840a 	mla	r4, fp, sl, r8
 8002eec:	eb04 4413 	add.w	r4, r4, r3, lsr #16
 8002ef0:	46e2      	mov	sl, ip
 8002ef2:	b29b      	uxth	r3, r3
 8002ef4:	ea43 4304 	orr.w	r3, r3, r4, lsl #16
 8002ef8:	454f      	cmp	r7, r9
 8002efa:	ea4f 4814 	mov.w	r8, r4, lsr #16
 8002efe:	f84a 3b04 	str.w	r3, [sl], #4
 8002f02:	d82b      	bhi.n	8002f5c <__multiply+0x120>
 8002f04:	f8cc 8004 	str.w	r8, [ip, #4]
 8002f08:	9b01      	ldr	r3, [sp, #4]
 8002f0a:	f8b3 a002 	ldrh.w	sl, [r3, #2]
 8002f0e:	3204      	adds	r2, #4
 8002f10:	f1ba 0f00 	cmp.w	sl, #0
 8002f14:	d020      	beq.n	8002f58 <__multiply+0x11c>
 8002f16:	682b      	ldr	r3, [r5, #0]
 8002f18:	4689      	mov	r9, r1
 8002f1a:	46a8      	mov	r8, r5
 8002f1c:	f04f 0b00 	mov.w	fp, #0
 8002f20:	f8b9 c000 	ldrh.w	ip, [r9]
 8002f24:	f8b8 4002 	ldrh.w	r4, [r8, #2]
 8002f28:	fb0a 440c 	mla	r4, sl, ip, r4
 8002f2c:	445c      	add	r4, fp
 8002f2e:	46c4      	mov	ip, r8
 8002f30:	b29b      	uxth	r3, r3
 8002f32:	ea43 4304 	orr.w	r3, r3, r4, lsl #16
 8002f36:	f84c 3b04 	str.w	r3, [ip], #4
 8002f3a:	f859 3b04 	ldr.w	r3, [r9], #4
 8002f3e:	f8b8 b004 	ldrh.w	fp, [r8, #4]
 8002f42:	0c1b      	lsrs	r3, r3, #16
 8002f44:	fb0a b303 	mla	r3, sl, r3, fp
 8002f48:	eb03 4314 	add.w	r3, r3, r4, lsr #16
 8002f4c:	454f      	cmp	r7, r9
 8002f4e:	ea4f 4b13 	mov.w	fp, r3, lsr #16
 8002f52:	d805      	bhi.n	8002f60 <__multiply+0x124>
 8002f54:	f8c8 3004 	str.w	r3, [r8, #4]
 8002f58:	3504      	adds	r5, #4
 8002f5a:	e79b      	b.n	8002e94 <__multiply+0x58>
 8002f5c:	46d4      	mov	ip, sl
 8002f5e:	e7b3      	b.n	8002ec8 <__multiply+0x8c>
 8002f60:	46e0      	mov	r8, ip
 8002f62:	e7dd      	b.n	8002f20 <__multiply+0xe4>
 8002f64:	3e01      	subs	r6, #1
 8002f66:	e799      	b.n	8002e9c <__multiply+0x60>

08002f68 <__pow5mult>:
 8002f68:	e92d 43f8 	stmdb	sp!, {r3, r4, r5, r6, r7, r8, r9, lr}
 8002f6c:	4615      	mov	r5, r2
 8002f6e:	f012 0203 	ands.w	r2, r2, #3
 8002f72:	4606      	mov	r6, r0
 8002f74:	460f      	mov	r7, r1
 8002f76:	d007      	beq.n	8002f88 <__pow5mult+0x20>
 8002f78:	3a01      	subs	r2, #1
 8002f7a:	4c21      	ldr	r4, [pc, #132]	; (8003000 <__pow5mult+0x98>)
 8002f7c:	2300      	movs	r3, #0
 8002f7e:	f854 2022 	ldr.w	r2, [r4, r2, lsl #2]
 8002f82:	f7ff fec9 	bl	8002d18 <__multadd>
 8002f86:	4607      	mov	r7, r0
 8002f88:	10ad      	asrs	r5, r5, #2
 8002f8a:	d035      	beq.n	8002ff8 <__pow5mult+0x90>
 8002f8c:	6a74      	ldr	r4, [r6, #36]	; 0x24
 8002f8e:	b93c      	cbnz	r4, 8002fa0 <__pow5mult+0x38>
 8002f90:	2010      	movs	r0, #16
 8002f92:	f7ff fe63 	bl	8002c5c <malloc>
 8002f96:	6270      	str	r0, [r6, #36]	; 0x24
 8002f98:	e9c0 4401 	strd	r4, r4, [r0, #4]
 8002f9c:	6004      	str	r4, [r0, #0]
 8002f9e:	60c4      	str	r4, [r0, #12]
 8002fa0:	f8d6 8024 	ldr.w	r8, [r6, #36]	; 0x24
 8002fa4:	f8d8 4008 	ldr.w	r4, [r8, #8]
 8002fa8:	b94c      	cbnz	r4, 8002fbe <__pow5mult+0x56>
 8002faa:	f240 2171 	movw	r1, #625	; 0x271
 8002fae:	4630      	mov	r0, r6
 8002fb0:	f7ff ff3b 	bl	8002e2a <__i2b>
 8002fb4:	2300      	movs	r3, #0
 8002fb6:	f8c8 0008 	str.w	r0, [r8, #8]
 8002fba:	4604      	mov	r4, r0
 8002fbc:	6003      	str	r3, [r0, #0]
 8002fbe:	f04f 0800 	mov.w	r8, #0
 8002fc2:	07eb      	lsls	r3, r5, #31
 8002fc4:	d50a      	bpl.n	8002fdc <__pow5mult+0x74>
 8002fc6:	4639      	mov	r1, r7
 8002fc8:	4622      	mov	r2, r4
 8002fca:	4630      	mov	r0, r6
 8002fcc:	f7ff ff36 	bl	8002e3c <__multiply>
 8002fd0:	4639      	mov	r1, r7
 8002fd2:	4681      	mov	r9, r0
 8002fd4:	4630      	mov	r0, r6
 8002fd6:	f7ff fe88 	bl	8002cea <_Bfree>
 8002fda:	464f      	mov	r7, r9
 8002fdc:	106d      	asrs	r5, r5, #1
 8002fde:	d00b      	beq.n	8002ff8 <__pow5mult+0x90>
 8002fe0:	6820      	ldr	r0, [r4, #0]
 8002fe2:	b938      	cbnz	r0, 8002ff4 <__pow5mult+0x8c>
 8002fe4:	4622      	mov	r2, r4
 8002fe6:	4621      	mov	r1, r4
 8002fe8:	4630      	mov	r0, r6
 8002fea:	f7ff ff27 	bl	8002e3c <__multiply>
 8002fee:	6020      	str	r0, [r4, #0]
 8002ff0:	f8c0 8000 	str.w	r8, [r0]
 8002ff4:	4604      	mov	r4, r0
 8002ff6:	e7e4      	b.n	8002fc2 <__pow5mult+0x5a>
 8002ff8:	4638      	mov	r0, r7
 8002ffa:	e8bd 83f8 	ldmia.w	sp!, {r3, r4, r5, r6, r7, r8, r9, pc}
 8002ffe:	bf00      	nop
 8003000:	080038c0 	.word	0x080038c0

08003004 <__lshift>:
 8003004:	e92d 47f0 	stmdb	sp!, {r4, r5, r6, r7, r8, r9, sl, lr}
 8003008:	460c      	mov	r4, r1
 800300a:	ea4f 1a62 	mov.w	sl, r2, asr #5
 800300e:	6923      	ldr	r3, [r4, #16]
 8003010:	6849      	ldr	r1, [r1, #4]
 8003012:	eb0a 0903 	add.w	r9, sl, r3
 8003016:	68a3      	ldr	r3, [r4, #8]
 8003018:	4607      	mov	r7, r0
 800301a:	4616      	mov	r6, r2
 800301c:	f109 0501 	add.w	r5, r9, #1
 8003020:	42ab      	cmp	r3, r5
 8003022:	db32      	blt.n	800308a <__lshift+0x86>
 8003024:	4638      	mov	r0, r7
 8003026:	f7ff fe2c 	bl	8002c82 <_Balloc>
 800302a:	2300      	movs	r3, #0
 800302c:	4680      	mov	r8, r0
 800302e:	f100 0114 	add.w	r1, r0, #20
 8003032:	461a      	mov	r2, r3
 8003034:	4553      	cmp	r3, sl
 8003036:	db2b      	blt.n	8003090 <__lshift+0x8c>
 8003038:	6920      	ldr	r0, [r4, #16]
 800303a:	ea2a 7aea 	bic.w	sl, sl, sl, asr #31
 800303e:	f104 0314 	add.w	r3, r4, #20
 8003042:	f016 021f 	ands.w	r2, r6, #31
 8003046:	eb01 018a 	add.w	r1, r1, sl, lsl #2
 800304a:	eb03 0c80 	add.w	ip, r3, r0, lsl #2
 800304e:	d025      	beq.n	800309c <__lshift+0x98>
 8003050:	f1c2 0e20 	rsb	lr, r2, #32
 8003054:	2000      	movs	r0, #0
 8003056:	681e      	ldr	r6, [r3, #0]
 8003058:	468a      	mov	sl, r1
 800305a:	4096      	lsls	r6, r2
 800305c:	4330      	orrs	r0, r6
 800305e:	f84a 0b04 	str.w	r0, [sl], #4
 8003062:	f853 0b04 	ldr.w	r0, [r3], #4
 8003066:	459c      	cmp	ip, r3
 8003068:	fa20 f00e 	lsr.w	r0, r0, lr
 800306c:	d814      	bhi.n	8003098 <__lshift+0x94>
 800306e:	6048      	str	r0, [r1, #4]
 8003070:	b108      	cbz	r0, 8003076 <__lshift+0x72>
 8003072:	f109 0502 	add.w	r5, r9, #2
 8003076:	3d01      	subs	r5, #1
 8003078:	4638      	mov	r0, r7
 800307a:	f8c8 5010 	str.w	r5, [r8, #16]
 800307e:	4621      	mov	r1, r4
 8003080:	f7ff fe33 	bl	8002cea <_Bfree>
 8003084:	4640      	mov	r0, r8
 8003086:	e8bd 87f0 	ldmia.w	sp!, {r4, r5, r6, r7, r8, r9, sl, pc}
 800308a:	3101      	adds	r1, #1
 800308c:	005b      	lsls	r3, r3, #1
 800308e:	e7c7      	b.n	8003020 <__lshift+0x1c>
 8003090:	f841 2023 	str.w	r2, [r1, r3, lsl #2]
 8003094:	3301      	adds	r3, #1
 8003096:	e7cd      	b.n	8003034 <__lshift+0x30>
 8003098:	4651      	mov	r1, sl
 800309a:	e7dc      	b.n	8003056 <__lshift+0x52>
 800309c:	3904      	subs	r1, #4
 800309e:	f853 2b04 	ldr.w	r2, [r3], #4
 80030a2:	f841 2f04 	str.w	r2, [r1, #4]!
 80030a6:	459c      	cmp	ip, r3
 80030a8:	d8f9      	bhi.n	800309e <__lshift+0x9a>
 80030aa:	e7e4      	b.n	8003076 <__lshift+0x72>

080030ac <__mcmp>:
 80030ac:	6903      	ldr	r3, [r0, #16]
 80030ae:	690a      	ldr	r2, [r1, #16]
 80030b0:	1a9b      	subs	r3, r3, r2
 80030b2:	b530      	push	{r4, r5, lr}
 80030b4:	d10c      	bne.n	80030d0 <__mcmp+0x24>
 80030b6:	0092      	lsls	r2, r2, #2
 80030b8:	3014      	adds	r0, #20
 80030ba:	3114      	adds	r1, #20
 80030bc:	1884      	adds	r4, r0, r2
 80030be:	4411      	add	r1, r2
 80030c0:	f854 5d04 	ldr.w	r5, [r4, #-4]!
 80030c4:	f851 2d04 	ldr.w	r2, [r1, #-4]!
 80030c8:	4295      	cmp	r5, r2
 80030ca:	d003      	beq.n	80030d4 <__mcmp+0x28>
 80030cc:	d305      	bcc.n	80030da <__mcmp+0x2e>
 80030ce:	2301      	movs	r3, #1
 80030d0:	4618      	mov	r0, r3
 80030d2:	bd30      	pop	{r4, r5, pc}
 80030d4:	42a0      	cmp	r0, r4
 80030d6:	d3f3      	bcc.n	80030c0 <__mcmp+0x14>
 80030d8:	e7fa      	b.n	80030d0 <__mcmp+0x24>
 80030da:	f04f 33ff 	mov.w	r3, #4294967295
 80030de:	e7f7      	b.n	80030d0 <__mcmp+0x24>

080030e0 <__mdiff>:
 80030e0:	e92d 47f0 	stmdb	sp!, {r4, r5, r6, r7, r8, r9, sl, lr}
 80030e4:	460d      	mov	r5, r1
 80030e6:	4607      	mov	r7, r0
 80030e8:	4611      	mov	r1, r2
 80030ea:	4628      	mov	r0, r5
 80030ec:	4614      	mov	r4, r2
 80030ee:	f7ff ffdd 	bl	80030ac <__mcmp>
 80030f2:	1e06      	subs	r6, r0, #0
 80030f4:	d108      	bne.n	8003108 <__mdiff+0x28>
 80030f6:	4631      	mov	r1, r6
 80030f8:	4638      	mov	r0, r7
 80030fa:	f7ff fdc2 	bl	8002c82 <_Balloc>
 80030fe:	2301      	movs	r3, #1
 8003100:	e9c0 3604 	strd	r3, r6, [r0, #16]
 8003104:	e8bd 87f0 	ldmia.w	sp!, {r4, r5, r6, r7, r8, r9, sl, pc}
 8003108:	bfa4      	itt	ge
 800310a:	4623      	movge	r3, r4
 800310c:	462c      	movge	r4, r5
 800310e:	4638      	mov	r0, r7
 8003110:	6861      	ldr	r1, [r4, #4]
 8003112:	bfa6      	itte	ge
 8003114:	461d      	movge	r5, r3
 8003116:	2600      	movge	r6, #0
 8003118:	2601      	movlt	r6, #1
 800311a:	f7ff fdb2 	bl	8002c82 <_Balloc>
 800311e:	692b      	ldr	r3, [r5, #16]
 8003120:	60c6      	str	r6, [r0, #12]
 8003122:	6926      	ldr	r6, [r4, #16]
 8003124:	f105 0914 	add.w	r9, r5, #20
 8003128:	f104 0214 	add.w	r2, r4, #20
 800312c:	eb02 0786 	add.w	r7, r2, r6, lsl #2
 8003130:	eb09 0883 	add.w	r8, r9, r3, lsl #2
 8003134:	f100 0514 	add.w	r5, r0, #20
 8003138:	f04f 0e00 	mov.w	lr, #0
 800313c:	f852 ab04 	ldr.w	sl, [r2], #4
 8003140:	f859 4b04 	ldr.w	r4, [r9], #4
 8003144:	fa1e f18a 	uxtah	r1, lr, sl
 8003148:	b2a3      	uxth	r3, r4
 800314a:	1ac9      	subs	r1, r1, r3
 800314c:	0c23      	lsrs	r3, r4, #16
 800314e:	ebc3 431a 	rsb	r3, r3, sl, lsr #16
 8003152:	eb03 4321 	add.w	r3, r3, r1, asr #16
 8003156:	b289      	uxth	r1, r1
 8003158:	ea4f 4e23 	mov.w	lr, r3, asr #16
 800315c:	45c8      	cmp	r8, r9
 800315e:	ea41 4303 	orr.w	r3, r1, r3, lsl #16
 8003162:	4694      	mov	ip, r2
 8003164:	f845 3b04 	str.w	r3, [r5], #4
 8003168:	d8e8      	bhi.n	800313c <__mdiff+0x5c>
 800316a:	45bc      	cmp	ip, r7
 800316c:	d304      	bcc.n	8003178 <__mdiff+0x98>
 800316e:	f855 3d04 	ldr.w	r3, [r5, #-4]!
 8003172:	b183      	cbz	r3, 8003196 <__mdiff+0xb6>
 8003174:	6106      	str	r6, [r0, #16]
 8003176:	e7c5      	b.n	8003104 <__mdiff+0x24>
 8003178:	f85c 1b04 	ldr.w	r1, [ip], #4
 800317c:	fa1e f381 	uxtah	r3, lr, r1
 8003180:	141a      	asrs	r2, r3, #16
 8003182:	eb02 4211 	add.w	r2, r2, r1, lsr #16
 8003186:	b29b      	uxth	r3, r3
 8003188:	ea43 4302 	orr.w	r3, r3, r2, lsl #16
 800318c:	ea4f 4e22 	mov.w	lr, r2, asr #16
 8003190:	f845 3b04 	str.w	r3, [r5], #4
 8003194:	e7e9      	b.n	800316a <__mdiff+0x8a>
 8003196:	3e01      	subs	r6, #1
 8003198:	e7e9      	b.n	800316e <__mdiff+0x8e>

0800319a <__d2b>:
 800319a:	e92d 43f7 	stmdb	sp!, {r0, r1, r2, r4, r5, r6, r7, r8, r9, lr}
 800319e:	460e      	mov	r6, r1
 80031a0:	2101      	movs	r1, #1
 80031a2:	ec59 8b10 	vmov	r8, r9, d0
 80031a6:	4615      	mov	r5, r2
 80031a8:	f7ff fd6b 	bl	8002c82 <_Balloc>
 80031ac:	f3c9 540a 	ubfx	r4, r9, #20, #11
 80031b0:	4607      	mov	r7, r0
 80031b2:	f3c9 0313 	ubfx	r3, r9, #0, #20
 80031b6:	bb34      	cbnz	r4, 8003206 <__d2b+0x6c>
 80031b8:	9301      	str	r3, [sp, #4]
 80031ba:	f1b8 0300 	subs.w	r3, r8, #0
 80031be:	d027      	beq.n	8003210 <__d2b+0x76>
 80031c0:	a802      	add	r0, sp, #8
 80031c2:	f840 3d08 	str.w	r3, [r0, #-8]!
 80031c6:	f7ff fe01 	bl	8002dcc <__lo0bits>
 80031ca:	9900      	ldr	r1, [sp, #0]
 80031cc:	b1f0      	cbz	r0, 800320c <__d2b+0x72>
 80031ce:	9a01      	ldr	r2, [sp, #4]
 80031d0:	f1c0 0320 	rsb	r3, r0, #32
 80031d4:	fa02 f303 	lsl.w	r3, r2, r3
 80031d8:	430b      	orrs	r3, r1
 80031da:	40c2      	lsrs	r2, r0
 80031dc:	617b      	str	r3, [r7, #20]
 80031de:	9201      	str	r2, [sp, #4]
 80031e0:	9b01      	ldr	r3, [sp, #4]
 80031e2:	61bb      	str	r3, [r7, #24]
 80031e4:	2b00      	cmp	r3, #0
 80031e6:	bf14      	ite	ne
 80031e8:	2102      	movne	r1, #2
 80031ea:	2101      	moveq	r1, #1
 80031ec:	6139      	str	r1, [r7, #16]
 80031ee:	b1c4      	cbz	r4, 8003222 <__d2b+0x88>
 80031f0:	f2a4 4433 	subw	r4, r4, #1075	; 0x433
 80031f4:	4404      	add	r4, r0
 80031f6:	6034      	str	r4, [r6, #0]
 80031f8:	f1c0 0035 	rsb	r0, r0, #53	; 0x35
 80031fc:	6028      	str	r0, [r5, #0]
 80031fe:	4638      	mov	r0, r7
 8003200:	b003      	add	sp, #12
 8003202:	e8bd 83f0 	ldmia.w	sp!, {r4, r5, r6, r7, r8, r9, pc}
 8003206:	f443 1380 	orr.w	r3, r3, #1048576	; 0x100000
 800320a:	e7d5      	b.n	80031b8 <__d2b+0x1e>
 800320c:	6179      	str	r1, [r7, #20]
 800320e:	e7e7      	b.n	80031e0 <__d2b+0x46>
 8003210:	a801      	add	r0, sp, #4
 8003212:	f7ff fddb 	bl	8002dcc <__lo0bits>
 8003216:	9b01      	ldr	r3, [sp, #4]
 8003218:	617b      	str	r3, [r7, #20]
 800321a:	2101      	movs	r1, #1
 800321c:	6139      	str	r1, [r7, #16]
 800321e:	3020      	adds	r0, #32
 8003220:	e7e5      	b.n	80031ee <__d2b+0x54>
 8003222:	eb07 0381 	add.w	r3, r7, r1, lsl #2
 8003226:	f2a0 4032 	subw	r0, r0, #1074	; 0x432
 800322a:	6030      	str	r0, [r6, #0]
 800322c:	6918      	ldr	r0, [r3, #16]
 800322e:	f7ff fdae 	bl	8002d8e <__hi0bits>
 8003232:	ebc0 1041 	rsb	r0, r0, r1, lsl #5
 8003236:	e7e1      	b.n	80031fc <__d2b+0x62>

08003238 <_calloc_r>:
 8003238:	b538      	push	{r3, r4, r5, lr}
 800323a:	fb02 f401 	mul.w	r4, r2, r1
 800323e:	4621      	mov	r1, r4
 8003240:	f000 f856 	bl	80032f0 <_malloc_r>
 8003244:	4605      	mov	r5, r0
 8003246:	b118      	cbz	r0, 8003250 <_calloc_r+0x18>
 8003248:	4622      	mov	r2, r4
 800324a:	2100      	movs	r1, #0
 800324c:	f7fe fa1a 	bl	8001684 <memset>
 8003250:	4628      	mov	r0, r5
 8003252:	bd38      	pop	{r3, r4, r5, pc}

08003254 <_free_r>:
 8003254:	b538      	push	{r3, r4, r5, lr}
 8003256:	4605      	mov	r5, r0
 8003258:	2900      	cmp	r1, #0
 800325a:	d045      	beq.n	80032e8 <_free_r+0x94>
 800325c:	f851 3c04 	ldr.w	r3, [r1, #-4]
 8003260:	1f0c      	subs	r4, r1, #4
 8003262:	2b00      	cmp	r3, #0
 8003264:	bfb8      	it	lt
 8003266:	18e4      	addlt	r4, r4, r3
 8003268:	f000 fa29 	bl	80036be <__malloc_lock>
 800326c:	4a1f      	ldr	r2, [pc, #124]	; (80032ec <_free_r+0x98>)
 800326e:	6813      	ldr	r3, [r2, #0]
 8003270:	4610      	mov	r0, r2
 8003272:	b933      	cbnz	r3, 8003282 <_free_r+0x2e>
 8003274:	6063      	str	r3, [r4, #4]
 8003276:	6014      	str	r4, [r2, #0]
 8003278:	4628      	mov	r0, r5
 800327a:	e8bd 4038 	ldmia.w	sp!, {r3, r4, r5, lr}
 800327e:	f000 ba1f 	b.w	80036c0 <__malloc_unlock>
 8003282:	42a3      	cmp	r3, r4
 8003284:	d90c      	bls.n	80032a0 <_free_r+0x4c>
 8003286:	6821      	ldr	r1, [r4, #0]
 8003288:	1862      	adds	r2, r4, r1
 800328a:	4293      	cmp	r3, r2
 800328c:	bf04      	itt	eq
 800328e:	681a      	ldreq	r2, [r3, #0]
 8003290:	685b      	ldreq	r3, [r3, #4]
 8003292:	6063      	str	r3, [r4, #4]
 8003294:	bf04      	itt	eq
 8003296:	1852      	addeq	r2, r2, r1
 8003298:	6022      	streq	r2, [r4, #0]
 800329a:	6004      	str	r4, [r0, #0]
 800329c:	e7ec      	b.n	8003278 <_free_r+0x24>
 800329e:	4613      	mov	r3, r2
 80032a0:	685a      	ldr	r2, [r3, #4]
 80032a2:	b10a      	cbz	r2, 80032a8 <_free_r+0x54>
 80032a4:	42a2      	cmp	r2, r4
 80032a6:	d9fa      	bls.n	800329e <_free_r+0x4a>
 80032a8:	6819      	ldr	r1, [r3, #0]
 80032aa:	1858      	adds	r0, r3, r1
 80032ac:	42a0      	cmp	r0, r4
 80032ae:	d10b      	bne.n	80032c8 <_free_r+0x74>
 80032b0:	6820      	ldr	r0, [r4, #0]
 80032b2:	4401      	add	r1, r0
 80032b4:	1858      	adds	r0, r3, r1
 80032b6:	4282      	cmp	r2, r0
 80032b8:	6019      	str	r1, [r3, #0]
 80032ba:	d1dd      	bne.n	8003278 <_free_r+0x24>
 80032bc:	6810      	ldr	r0, [r2, #0]
 80032be:	6852      	ldr	r2, [r2, #4]
 80032c0:	605a      	str	r2, [r3, #4]
 80032c2:	4401      	add	r1, r0
 80032c4:	6019      	str	r1, [r3, #0]
 80032c6:	e7d7      	b.n	8003278 <_free_r+0x24>
 80032c8:	d902      	bls.n	80032d0 <_free_r+0x7c>
 80032ca:	230c      	movs	r3, #12
 80032cc:	602b      	str	r3, [r5, #0]
 80032ce:	e7d3      	b.n	8003278 <_free_r+0x24>
 80032d0:	6820      	ldr	r0, [r4, #0]
 80032d2:	1821      	adds	r1, r4, r0
 80032d4:	428a      	cmp	r2, r1
 80032d6:	bf04      	itt	eq
 80032d8:	6811      	ldreq	r1, [r2, #0]
 80032da:	6852      	ldreq	r2, [r2, #4]
 80032dc:	6062      	str	r2, [r4, #4]
 80032de:	bf04      	itt	eq
 80032e0:	1809      	addeq	r1, r1, r0
 80032e2:	6021      	streq	r1, [r4, #0]
 80032e4:	605c      	str	r4, [r3, #4]
 80032e6:	e7c7      	b.n	8003278 <_free_r+0x24>
 80032e8:	bd38      	pop	{r3, r4, r5, pc}
 80032ea:	bf00      	nop
 80032ec:	200001f4 	.word	0x200001f4

080032f0 <_malloc_r>:
 80032f0:	b570      	push	{r4, r5, r6, lr}
 80032f2:	1ccd      	adds	r5, r1, #3
 80032f4:	f025 0503 	bic.w	r5, r5, #3
 80032f8:	3508      	adds	r5, #8
 80032fa:	2d0c      	cmp	r5, #12
 80032fc:	bf38      	it	cc
 80032fe:	250c      	movcc	r5, #12
 8003300:	2d00      	cmp	r5, #0
 8003302:	4606      	mov	r6, r0
 8003304:	db01      	blt.n	800330a <_malloc_r+0x1a>
 8003306:	42a9      	cmp	r1, r5
 8003308:	d903      	bls.n	8003312 <_malloc_r+0x22>
 800330a:	230c      	movs	r3, #12
 800330c:	6033      	str	r3, [r6, #0]
 800330e:	2000      	movs	r0, #0
 8003310:	bd70      	pop	{r4, r5, r6, pc}
 8003312:	f000 f9d4 	bl	80036be <__malloc_lock>
 8003316:	4a21      	ldr	r2, [pc, #132]	; (800339c <_malloc_r+0xac>)
 8003318:	6814      	ldr	r4, [r2, #0]
 800331a:	4621      	mov	r1, r4
 800331c:	b991      	cbnz	r1, 8003344 <_malloc_r+0x54>
 800331e:	4c20      	ldr	r4, [pc, #128]	; (80033a0 <_malloc_r+0xb0>)
 8003320:	6823      	ldr	r3, [r4, #0]
 8003322:	b91b      	cbnz	r3, 800332c <_malloc_r+0x3c>
 8003324:	4630      	mov	r0, r6
 8003326:	f000 f98f 	bl	8003648 <_sbrk_r>
 800332a:	6020      	str	r0, [r4, #0]
 800332c:	4629      	mov	r1, r5
 800332e:	4630      	mov	r0, r6
 8003330:	f000 f98a 	bl	8003648 <_sbrk_r>
 8003334:	1c43      	adds	r3, r0, #1
 8003336:	d124      	bne.n	8003382 <_malloc_r+0x92>
 8003338:	230c      	movs	r3, #12
 800333a:	6033      	str	r3, [r6, #0]
 800333c:	4630      	mov	r0, r6
 800333e:	f000 f9bf 	bl	80036c0 <__malloc_unlock>
 8003342:	e7e4      	b.n	800330e <_malloc_r+0x1e>
 8003344:	680b      	ldr	r3, [r1, #0]
 8003346:	1b5b      	subs	r3, r3, r5
 8003348:	d418      	bmi.n	800337c <_malloc_r+0x8c>
 800334a:	2b0b      	cmp	r3, #11
 800334c:	d90f      	bls.n	800336e <_malloc_r+0x7e>
 800334e:	600b      	str	r3, [r1, #0]
 8003350:	50cd      	str	r5, [r1, r3]
 8003352:	18cc      	adds	r4, r1, r3
 8003354:	4630      	mov	r0, r6
 8003356:	f000 f9b3 	bl	80036c0 <__malloc_unlock>
 800335a:	f104 000b 	add.w	r0, r4, #11
 800335e:	1d23      	adds	r3, r4, #4
 8003360:	f020 0007 	bic.w	r0, r0, #7
 8003364:	1ac3      	subs	r3, r0, r3
 8003366:	d0d3      	beq.n	8003310 <_malloc_r+0x20>
 8003368:	425a      	negs	r2, r3
 800336a:	50e2      	str	r2, [r4, r3]
 800336c:	e7d0      	b.n	8003310 <_malloc_r+0x20>
 800336e:	428c      	cmp	r4, r1
 8003370:	684b      	ldr	r3, [r1, #4]
 8003372:	bf16      	itet	ne
 8003374:	6063      	strne	r3, [r4, #4]
 8003376:	6013      	streq	r3, [r2, #0]
 8003378:	460c      	movne	r4, r1
 800337a:	e7eb      	b.n	8003354 <_malloc_r+0x64>
 800337c:	460c      	mov	r4, r1
 800337e:	6849      	ldr	r1, [r1, #4]
 8003380:	e7cc      	b.n	800331c <_malloc_r+0x2c>
 8003382:	1cc4      	adds	r4, r0, #3
 8003384:	f024 0403 	bic.w	r4, r4, #3
 8003388:	42a0      	cmp	r0, r4
 800338a:	d005      	beq.n	8003398 <_malloc_r+0xa8>
 800338c:	1a21      	subs	r1, r4, r0
 800338e:	4630      	mov	r0, r6
 8003390:	f000 f95a 	bl	8003648 <_sbrk_r>
 8003394:	3001      	adds	r0, #1
 8003396:	d0cf      	beq.n	8003338 <_malloc_r+0x48>
 8003398:	6025      	str	r5, [r4, #0]
 800339a:	e7db      	b.n	8003354 <_malloc_r+0x64>
 800339c:	200001f4 	.word	0x200001f4
 80033a0:	200001f8 	.word	0x200001f8

080033a4 <__ssputs_r>:
 80033a4:	e92d 47f0 	stmdb	sp!, {r4, r5, r6, r7, r8, r9, sl, lr}
 80033a8:	688e      	ldr	r6, [r1, #8]
 80033aa:	429e      	cmp	r6, r3
 80033ac:	4682      	mov	sl, r0
 80033ae:	460c      	mov	r4, r1
 80033b0:	4690      	mov	r8, r2
 80033b2:	4699      	mov	r9, r3
 80033b4:	d837      	bhi.n	8003426 <__ssputs_r+0x82>
 80033b6:	898a      	ldrh	r2, [r1, #12]
 80033b8:	f412 6f90 	tst.w	r2, #1152	; 0x480
 80033bc:	d031      	beq.n	8003422 <__ssputs_r+0x7e>
 80033be:	6825      	ldr	r5, [r4, #0]
 80033c0:	6909      	ldr	r1, [r1, #16]
 80033c2:	1a6f      	subs	r7, r5, r1
 80033c4:	6965      	ldr	r5, [r4, #20]
 80033c6:	2302      	movs	r3, #2
 80033c8:	eb05 0545 	add.w	r5, r5, r5, lsl #1
 80033cc:	fb95 f5f3 	sdiv	r5, r5, r3
 80033d0:	f109 0301 	add.w	r3, r9, #1
 80033d4:	443b      	add	r3, r7
 80033d6:	429d      	cmp	r5, r3
 80033d8:	bf38      	it	cc
 80033da:	461d      	movcc	r5, r3
 80033dc:	0553      	lsls	r3, r2, #21
 80033de:	d530      	bpl.n	8003442 <__ssputs_r+0x9e>
 80033e0:	4629      	mov	r1, r5
 80033e2:	f7ff ff85 	bl	80032f0 <_malloc_r>
 80033e6:	4606      	mov	r6, r0
 80033e8:	b950      	cbnz	r0, 8003400 <__ssputs_r+0x5c>
 80033ea:	230c      	movs	r3, #12
 80033ec:	f8ca 3000 	str.w	r3, [sl]
 80033f0:	89a3      	ldrh	r3, [r4, #12]
 80033f2:	f043 0340 	orr.w	r3, r3, #64	; 0x40
 80033f6:	81a3      	strh	r3, [r4, #12]
 80033f8:	f04f 30ff 	mov.w	r0, #4294967295
 80033fc:	e8bd 87f0 	ldmia.w	sp!, {r4, r5, r6, r7, r8, r9, sl, pc}
 8003400:	463a      	mov	r2, r7
 8003402:	6921      	ldr	r1, [r4, #16]
 8003404:	f7ff fc32 	bl	8002c6c <memcpy>
 8003408:	89a3      	ldrh	r3, [r4, #12]
 800340a:	f423 6390 	bic.w	r3, r3, #1152	; 0x480
 800340e:	f043 0380 	orr.w	r3, r3, #128	; 0x80
 8003412:	81a3      	strh	r3, [r4, #12]
 8003414:	6126      	str	r6, [r4, #16]
 8003416:	6165      	str	r5, [r4, #20]
 8003418:	443e      	add	r6, r7
 800341a:	1bed      	subs	r5, r5, r7
 800341c:	6026      	str	r6, [r4, #0]
 800341e:	60a5      	str	r5, [r4, #8]
 8003420:	464e      	mov	r6, r9
 8003422:	454e      	cmp	r6, r9
 8003424:	d900      	bls.n	8003428 <__ssputs_r+0x84>
 8003426:	464e      	mov	r6, r9
 8003428:	4632      	mov	r2, r6
 800342a:	4641      	mov	r1, r8
 800342c:	6820      	ldr	r0, [r4, #0]
 800342e:	f000 f92d 	bl	800368c <memmove>
 8003432:	68a3      	ldr	r3, [r4, #8]
 8003434:	1b9b      	subs	r3, r3, r6
 8003436:	60a3      	str	r3, [r4, #8]
 8003438:	6823      	ldr	r3, [r4, #0]
 800343a:	441e      	add	r6, r3
 800343c:	6026      	str	r6, [r4, #0]
 800343e:	2000      	movs	r0, #0
 8003440:	e7dc      	b.n	80033fc <__ssputs_r+0x58>
 8003442:	462a      	mov	r2, r5
 8003444:	f000 f93d 	bl	80036c2 <_realloc_r>
 8003448:	4606      	mov	r6, r0
 800344a:	2800      	cmp	r0, #0
 800344c:	d1e2      	bne.n	8003414 <__ssputs_r+0x70>
 800344e:	6921      	ldr	r1, [r4, #16]
 8003450:	4650      	mov	r0, sl
 8003452:	f7ff feff 	bl	8003254 <_free_r>
 8003456:	e7c8      	b.n	80033ea <__ssputs_r+0x46>

08003458 <_svfiprintf_r>:
 8003458:	e92d 4ff0 	stmdb	sp!, {r4, r5, r6, r7, r8, r9, sl, fp, lr}
 800345c:	461d      	mov	r5, r3
 800345e:	898b      	ldrh	r3, [r1, #12]
 8003460:	061f      	lsls	r7, r3, #24
 8003462:	b09d      	sub	sp, #116	; 0x74
 8003464:	4680      	mov	r8, r0
 8003466:	460c      	mov	r4, r1
 8003468:	4616      	mov	r6, r2
 800346a:	d50f      	bpl.n	800348c <_svfiprintf_r+0x34>
 800346c:	690b      	ldr	r3, [r1, #16]
 800346e:	b96b      	cbnz	r3, 800348c <_svfiprintf_r+0x34>
 8003470:	2140      	movs	r1, #64	; 0x40
 8003472:	f7ff ff3d 	bl	80032f0 <_malloc_r>
 8003476:	6020      	str	r0, [r4, #0]
 8003478:	6120      	str	r0, [r4, #16]
 800347a:	b928      	cbnz	r0, 8003488 <_svfiprintf_r+0x30>
 800347c:	230c      	movs	r3, #12
 800347e:	f8c8 3000 	str.w	r3, [r8]
 8003482:	f04f 30ff 	mov.w	r0, #4294967295
 8003486:	e0c8      	b.n	800361a <_svfiprintf_r+0x1c2>
 8003488:	2340      	movs	r3, #64	; 0x40
 800348a:	6163      	str	r3, [r4, #20]
 800348c:	2300      	movs	r3, #0
 800348e:	9309      	str	r3, [sp, #36]	; 0x24
 8003490:	2320      	movs	r3, #32
 8003492:	f88d 3029 	strb.w	r3, [sp, #41]	; 0x29
 8003496:	2330      	movs	r3, #48	; 0x30
 8003498:	f88d 302a 	strb.w	r3, [sp, #42]	; 0x2a
 800349c:	9503      	str	r5, [sp, #12]
 800349e:	f04f 0b01 	mov.w	fp, #1
 80034a2:	4637      	mov	r7, r6
 80034a4:	463d      	mov	r5, r7
 80034a6:	f815 3b01 	ldrb.w	r3, [r5], #1
 80034aa:	b10b      	cbz	r3, 80034b0 <_svfiprintf_r+0x58>
 80034ac:	2b25      	cmp	r3, #37	; 0x25
 80034ae:	d13e      	bne.n	800352e <_svfiprintf_r+0xd6>
 80034b0:	ebb7 0a06 	subs.w	sl, r7, r6
 80034b4:	d00b      	beq.n	80034ce <_svfiprintf_r+0x76>
 80034b6:	4653      	mov	r3, sl
 80034b8:	4632      	mov	r2, r6
 80034ba:	4621      	mov	r1, r4
 80034bc:	4640      	mov	r0, r8
 80034be:	f7ff ff71 	bl	80033a4 <__ssputs_r>
 80034c2:	3001      	adds	r0, #1
 80034c4:	f000 80a4 	beq.w	8003610 <_svfiprintf_r+0x1b8>
 80034c8:	9b09      	ldr	r3, [sp, #36]	; 0x24
 80034ca:	4453      	add	r3, sl
 80034cc:	9309      	str	r3, [sp, #36]	; 0x24
 80034ce:	783b      	ldrb	r3, [r7, #0]
 80034d0:	2b00      	cmp	r3, #0
 80034d2:	f000 809d 	beq.w	8003610 <_svfiprintf_r+0x1b8>
 80034d6:	2300      	movs	r3, #0
 80034d8:	f04f 32ff 	mov.w	r2, #4294967295
 80034dc:	e9cd 2305 	strd	r2, r3, [sp, #20]
 80034e0:	9304      	str	r3, [sp, #16]
 80034e2:	9307      	str	r3, [sp, #28]
 80034e4:	f88d 3053 	strb.w	r3, [sp, #83]	; 0x53
 80034e8:	931a      	str	r3, [sp, #104]	; 0x68
 80034ea:	462f      	mov	r7, r5
 80034ec:	2205      	movs	r2, #5
 80034ee:	f817 1b01 	ldrb.w	r1, [r7], #1
 80034f2:	4850      	ldr	r0, [pc, #320]	; (8003634 <_svfiprintf_r+0x1dc>)
 80034f4:	f7fc fe7c 	bl	80001f0 <memchr>
 80034f8:	9b04      	ldr	r3, [sp, #16]
 80034fa:	b9d0      	cbnz	r0, 8003532 <_svfiprintf_r+0xda>
 80034fc:	06d9      	lsls	r1, r3, #27
 80034fe:	bf44      	itt	mi
 8003500:	2220      	movmi	r2, #32
 8003502:	f88d 2053 	strbmi.w	r2, [sp, #83]	; 0x53
 8003506:	071a      	lsls	r2, r3, #28
 8003508:	bf44      	itt	mi
 800350a:	222b      	movmi	r2, #43	; 0x2b
 800350c:	f88d 2053 	strbmi.w	r2, [sp, #83]	; 0x53
 8003510:	782a      	ldrb	r2, [r5, #0]
 8003512:	2a2a      	cmp	r2, #42	; 0x2a
 8003514:	d015      	beq.n	8003542 <_svfiprintf_r+0xea>
 8003516:	9a07      	ldr	r2, [sp, #28]
 8003518:	462f      	mov	r7, r5
 800351a:	2000      	movs	r0, #0
 800351c:	250a      	movs	r5, #10
 800351e:	4639      	mov	r1, r7
 8003520:	f811 3b01 	ldrb.w	r3, [r1], #1
 8003524:	3b30      	subs	r3, #48	; 0x30
 8003526:	2b09      	cmp	r3, #9
 8003528:	d94d      	bls.n	80035c6 <_svfiprintf_r+0x16e>
 800352a:	b1b8      	cbz	r0, 800355c <_svfiprintf_r+0x104>
 800352c:	e00f      	b.n	800354e <_svfiprintf_r+0xf6>
 800352e:	462f      	mov	r7, r5
 8003530:	e7b8      	b.n	80034a4 <_svfiprintf_r+0x4c>
 8003532:	4a40      	ldr	r2, [pc, #256]	; (8003634 <_svfiprintf_r+0x1dc>)
 8003534:	1a80      	subs	r0, r0, r2
 8003536:	fa0b f000 	lsl.w	r0, fp, r0
 800353a:	4318      	orrs	r0, r3
 800353c:	9004      	str	r0, [sp, #16]
 800353e:	463d      	mov	r5, r7
 8003540:	e7d3      	b.n	80034ea <_svfiprintf_r+0x92>
 8003542:	9a03      	ldr	r2, [sp, #12]
 8003544:	1d11      	adds	r1, r2, #4
 8003546:	6812      	ldr	r2, [r2, #0]
 8003548:	9103      	str	r1, [sp, #12]
 800354a:	2a00      	cmp	r2, #0
 800354c:	db01      	blt.n	8003552 <_svfiprintf_r+0xfa>
 800354e:	9207      	str	r2, [sp, #28]
 8003550:	e004      	b.n	800355c <_svfiprintf_r+0x104>
 8003552:	4252      	negs	r2, r2
 8003554:	f043 0302 	orr.w	r3, r3, #2
 8003558:	9207      	str	r2, [sp, #28]
 800355a:	9304      	str	r3, [sp, #16]
 800355c:	783b      	ldrb	r3, [r7, #0]
 800355e:	2b2e      	cmp	r3, #46	; 0x2e
 8003560:	d10c      	bne.n	800357c <_svfiprintf_r+0x124>
 8003562:	787b      	ldrb	r3, [r7, #1]
 8003564:	2b2a      	cmp	r3, #42	; 0x2a
 8003566:	d133      	bne.n	80035d0 <_svfiprintf_r+0x178>
 8003568:	9b03      	ldr	r3, [sp, #12]
 800356a:	1d1a      	adds	r2, r3, #4
 800356c:	681b      	ldr	r3, [r3, #0]
 800356e:	9203      	str	r2, [sp, #12]
 8003570:	2b00      	cmp	r3, #0
 8003572:	bfb8      	it	lt
 8003574:	f04f 33ff 	movlt.w	r3, #4294967295
 8003578:	3702      	adds	r7, #2
 800357a:	9305      	str	r3, [sp, #20]
 800357c:	4d2e      	ldr	r5, [pc, #184]	; (8003638 <_svfiprintf_r+0x1e0>)
 800357e:	7839      	ldrb	r1, [r7, #0]
 8003580:	2203      	movs	r2, #3
 8003582:	4628      	mov	r0, r5
 8003584:	f7fc fe34 	bl	80001f0 <memchr>
 8003588:	b138      	cbz	r0, 800359a <_svfiprintf_r+0x142>
 800358a:	2340      	movs	r3, #64	; 0x40
 800358c:	1b40      	subs	r0, r0, r5
 800358e:	fa03 f000 	lsl.w	r0, r3, r0
 8003592:	9b04      	ldr	r3, [sp, #16]
 8003594:	4303      	orrs	r3, r0
 8003596:	3701      	adds	r7, #1
 8003598:	9304      	str	r3, [sp, #16]
 800359a:	7839      	ldrb	r1, [r7, #0]
 800359c:	4827      	ldr	r0, [pc, #156]	; (800363c <_svfiprintf_r+0x1e4>)
 800359e:	f88d 1028 	strb.w	r1, [sp, #40]	; 0x28
 80035a2:	2206      	movs	r2, #6
 80035a4:	1c7e      	adds	r6, r7, #1
 80035a6:	f7fc fe23 	bl	80001f0 <memchr>
 80035aa:	2800      	cmp	r0, #0
 80035ac:	d038      	beq.n	8003620 <_svfiprintf_r+0x1c8>
 80035ae:	4b24      	ldr	r3, [pc, #144]	; (8003640 <_svfiprintf_r+0x1e8>)
 80035b0:	bb13      	cbnz	r3, 80035f8 <_svfiprintf_r+0x1a0>
 80035b2:	9b03      	ldr	r3, [sp, #12]
 80035b4:	3307      	adds	r3, #7
 80035b6:	f023 0307 	bic.w	r3, r3, #7
 80035ba:	3308      	adds	r3, #8
 80035bc:	9303      	str	r3, [sp, #12]
 80035be:	9b09      	ldr	r3, [sp, #36]	; 0x24
 80035c0:	444b      	add	r3, r9
 80035c2:	9309      	str	r3, [sp, #36]	; 0x24
 80035c4:	e76d      	b.n	80034a2 <_svfiprintf_r+0x4a>
 80035c6:	fb05 3202 	mla	r2, r5, r2, r3
 80035ca:	2001      	movs	r0, #1
 80035cc:	460f      	mov	r7, r1
 80035ce:	e7a6      	b.n	800351e <_svfiprintf_r+0xc6>
 80035d0:	2300      	movs	r3, #0
 80035d2:	3701      	adds	r7, #1
 80035d4:	9305      	str	r3, [sp, #20]
 80035d6:	4619      	mov	r1, r3
 80035d8:	250a      	movs	r5, #10
 80035da:	4638      	mov	r0, r7
 80035dc:	f810 2b01 	ldrb.w	r2, [r0], #1
 80035e0:	3a30      	subs	r2, #48	; 0x30
 80035e2:	2a09      	cmp	r2, #9
 80035e4:	d903      	bls.n	80035ee <_svfiprintf_r+0x196>
 80035e6:	2b00      	cmp	r3, #0
 80035e8:	d0c8      	beq.n	800357c <_svfiprintf_r+0x124>
 80035ea:	9105      	str	r1, [sp, #20]
 80035ec:	e7c6      	b.n	800357c <_svfiprintf_r+0x124>
 80035ee:	fb05 2101 	mla	r1, r5, r1, r2
 80035f2:	2301      	movs	r3, #1
 80035f4:	4607      	mov	r7, r0
 80035f6:	e7f0      	b.n	80035da <_svfiprintf_r+0x182>
 80035f8:	ab03      	add	r3, sp, #12
 80035fa:	9300      	str	r3, [sp, #0]
 80035fc:	4622      	mov	r2, r4
 80035fe:	4b11      	ldr	r3, [pc, #68]	; (8003644 <_svfiprintf_r+0x1ec>)
 8003600:	a904      	add	r1, sp, #16
 8003602:	4640      	mov	r0, r8
 8003604:	f7fe f8da 	bl	80017bc <_printf_float>
 8003608:	f1b0 3fff 	cmp.w	r0, #4294967295
 800360c:	4681      	mov	r9, r0
 800360e:	d1d6      	bne.n	80035be <_svfiprintf_r+0x166>
 8003610:	89a3      	ldrh	r3, [r4, #12]
 8003612:	065b      	lsls	r3, r3, #25
 8003614:	f53f af35 	bmi.w	8003482 <_svfiprintf_r+0x2a>
 8003618:	9809      	ldr	r0, [sp, #36]	; 0x24
 800361a:	b01d      	add	sp, #116	; 0x74
 800361c:	e8bd 8ff0 	ldmia.w	sp!, {r4, r5, r6, r7, r8, r9, sl, fp, pc}
 8003620:	ab03      	add	r3, sp, #12
 8003622:	9300      	str	r3, [sp, #0]
 8003624:	4622      	mov	r2, r4
 8003626:	4b07      	ldr	r3, [pc, #28]	; (8003644 <_svfiprintf_r+0x1ec>)
 8003628:	a904      	add	r1, sp, #16
 800362a:	4640      	mov	r0, r8
 800362c:	f7fe fb7c 	bl	8001d28 <_printf_i>
 8003630:	e7ea      	b.n	8003608 <_svfiprintf_r+0x1b0>
 8003632:	bf00      	nop
 8003634:	080038cc 	.word	0x080038cc
 8003638:	080038d2 	.word	0x080038d2
 800363c:	080038d6 	.word	0x080038d6
 8003640:	080017bd 	.word	0x080017bd
 8003644:	080033a5 	.word	0x080033a5

08003648 <_sbrk_r>:
 8003648:	b538      	push	{r3, r4, r5, lr}
 800364a:	4c06      	ldr	r4, [pc, #24]	; (8003664 <_sbrk_r+0x1c>)
 800364c:	2300      	movs	r3, #0
 800364e:	4605      	mov	r5, r0
 8003650:	4608      	mov	r0, r1
 8003652:	6023      	str	r3, [r4, #0]
 8003654:	f7fd fcba 	bl	8000fcc <_sbrk>
 8003658:	1c43      	adds	r3, r0, #1
 800365a:	d102      	bne.n	8003662 <_sbrk_r+0x1a>
 800365c:	6823      	ldr	r3, [r4, #0]
 800365e:	b103      	cbz	r3, 8003662 <_sbrk_r+0x1a>
 8003660:	602b      	str	r3, [r5, #0]
 8003662:	bd38      	pop	{r3, r4, r5, pc}
 8003664:	2000031c 	.word	0x2000031c

08003668 <__ascii_mbtowc>:
 8003668:	b082      	sub	sp, #8
 800366a:	b901      	cbnz	r1, 800366e <__ascii_mbtowc+0x6>
 800366c:	a901      	add	r1, sp, #4
 800366e:	b142      	cbz	r2, 8003682 <__ascii_mbtowc+0x1a>
 8003670:	b14b      	cbz	r3, 8003686 <__ascii_mbtowc+0x1e>
 8003672:	7813      	ldrb	r3, [r2, #0]
 8003674:	600b      	str	r3, [r1, #0]
 8003676:	7812      	ldrb	r2, [r2, #0]
 8003678:	1c10      	adds	r0, r2, #0
 800367a:	bf18      	it	ne
 800367c:	2001      	movne	r0, #1
 800367e:	b002      	add	sp, #8
 8003680:	4770      	bx	lr
 8003682:	4610      	mov	r0, r2
 8003684:	e7fb      	b.n	800367e <__ascii_mbtowc+0x16>
 8003686:	f06f 0001 	mvn.w	r0, #1
 800368a:	e7f8      	b.n	800367e <__ascii_mbtowc+0x16>

0800368c <memmove>:
 800368c:	4288      	cmp	r0, r1
 800368e:	b510      	push	{r4, lr}
 8003690:	eb01 0302 	add.w	r3, r1, r2
 8003694:	d807      	bhi.n	80036a6 <memmove+0x1a>
 8003696:	1e42      	subs	r2, r0, #1
 8003698:	4299      	cmp	r1, r3
 800369a:	d00a      	beq.n	80036b2 <memmove+0x26>
 800369c:	f811 4b01 	ldrb.w	r4, [r1], #1
 80036a0:	f802 4f01 	strb.w	r4, [r2, #1]!
 80036a4:	e7f8      	b.n	8003698 <memmove+0xc>
 80036a6:	4283      	cmp	r3, r0
 80036a8:	d9f5      	bls.n	8003696 <memmove+0xa>
 80036aa:	1881      	adds	r1, r0, r2
 80036ac:	1ad2      	subs	r2, r2, r3
 80036ae:	42d3      	cmn	r3, r2
 80036b0:	d100      	bne.n	80036b4 <memmove+0x28>
 80036b2:	bd10      	pop	{r4, pc}
 80036b4:	f813 4d01 	ldrb.w	r4, [r3, #-1]!
 80036b8:	f801 4d01 	strb.w	r4, [r1, #-1]!
 80036bc:	e7f7      	b.n	80036ae <memmove+0x22>

080036be <__malloc_lock>:
 80036be:	4770      	bx	lr

080036c0 <__malloc_unlock>:
 80036c0:	4770      	bx	lr

080036c2 <_realloc_r>:
 80036c2:	b5f8      	push	{r3, r4, r5, r6, r7, lr}
 80036c4:	4607      	mov	r7, r0
 80036c6:	4614      	mov	r4, r2
 80036c8:	460e      	mov	r6, r1
 80036ca:	b921      	cbnz	r1, 80036d6 <_realloc_r+0x14>
 80036cc:	4611      	mov	r1, r2
 80036ce:	e8bd 40f8 	ldmia.w	sp!, {r3, r4, r5, r6, r7, lr}
 80036d2:	f7ff be0d 	b.w	80032f0 <_malloc_r>
 80036d6:	b922      	cbnz	r2, 80036e2 <_realloc_r+0x20>
 80036d8:	f7ff fdbc 	bl	8003254 <_free_r>
 80036dc:	4625      	mov	r5, r4
 80036de:	4628      	mov	r0, r5
 80036e0:	bdf8      	pop	{r3, r4, r5, r6, r7, pc}
 80036e2:	f000 f821 	bl	8003728 <_malloc_usable_size_r>
 80036e6:	42a0      	cmp	r0, r4
 80036e8:	d20f      	bcs.n	800370a <_realloc_r+0x48>
 80036ea:	4621      	mov	r1, r4
 80036ec:	4638      	mov	r0, r7
 80036ee:	f7ff fdff 	bl	80032f0 <_malloc_r>
 80036f2:	4605      	mov	r5, r0
 80036f4:	2800      	cmp	r0, #0
 80036f6:	d0f2      	beq.n	80036de <_realloc_r+0x1c>
 80036f8:	4631      	mov	r1, r6
 80036fa:	4622      	mov	r2, r4
 80036fc:	f7ff fab6 	bl	8002c6c <memcpy>
 8003700:	4631      	mov	r1, r6
 8003702:	4638      	mov	r0, r7
 8003704:	f7ff fda6 	bl	8003254 <_free_r>
 8003708:	e7e9      	b.n	80036de <_realloc_r+0x1c>
 800370a:	4635      	mov	r5, r6
 800370c:	e7e7      	b.n	80036de <_realloc_r+0x1c>

0800370e <__ascii_wctomb>:
 800370e:	b149      	cbz	r1, 8003724 <__ascii_wctomb+0x16>
 8003710:	2aff      	cmp	r2, #255	; 0xff
 8003712:	bf85      	ittet	hi
 8003714:	238a      	movhi	r3, #138	; 0x8a
 8003716:	6003      	strhi	r3, [r0, #0]
 8003718:	700a      	strbls	r2, [r1, #0]
 800371a:	f04f 30ff 	movhi.w	r0, #4294967295
 800371e:	bf98      	it	ls
 8003720:	2001      	movls	r0, #1
 8003722:	4770      	bx	lr
 8003724:	4608      	mov	r0, r1
 8003726:	4770      	bx	lr

08003728 <_malloc_usable_size_r>:
 8003728:	f851 3c04 	ldr.w	r3, [r1, #-4]
 800372c:	1f18      	subs	r0, r3, #4
 800372e:	2b00      	cmp	r3, #0
 8003730:	bfbc      	itt	lt
 8003732:	580b      	ldrlt	r3, [r1, r0]
 8003734:	18c0      	addlt	r0, r0, r3
 8003736:	4770      	bx	lr

08003738 <_init>:
 8003738:	b5f8      	push	{r3, r4, r5, r6, r7, lr}
 800373a:	bf00      	nop
 800373c:	bcf8      	pop	{r3, r4, r5, r6, r7}
 800373e:	bc08      	pop	{r3}
 8003740:	469e      	mov	lr, r3
 8003742:	4770      	bx	lr

08003744 <_fini>:
 8003744:	b5f8      	push	{r3, r4, r5, r6, r7, lr}
 8003746:	bf00      	nop
 8003748:	bcf8      	pop	{r3, r4, r5, r6, r7}
 800374a:	bc08      	pop	{r3}
 800374c:	469e      	mov	lr, r3
 800374e:	4770      	bx	lr
